Certificate:
    Data:
        Version: 3 (0x2)
        Serial Number: 9 (0x9)
        Signature Algorithm: sha256WithRSAEncryption
        Issuer: C=00, ST=test, L=TEST ,.\/<>  ?;:@~  []!%^  *()-=  _\+| (23) TEST, O=example.org, OU=TEST esc {  \xC2\xA3 \xC2\xAC (4) TEST}, CN=easytls-unit-test/emailAddress=me@example.net
        Validity
            Not Before: Feb 25 23:40:29 2022 GMT
            Not After : May 30 23:40:29 2024 GMT
        Subject: C=00, ST=test, L=TEST ,.\/<>  ?;:@~  []!%^  *()-=  _\+| (23) TEST, O=example.org, OU=TEST esc {  \xC2\xA3 \xC2\xAC (4) TEST}, CN=c03/emailAddress=me@example.net
        Subject Public Key Info:
            Public Key Algorithm: rsaEncryption
                Public-Key: (2048 bit)
                Modulus:
                    00:9d:c8:b0:e4:df:ef:1a:09:27:ff:eb:fa:42:24:
                    89:45:91:1d:66:4d:c4:dd:83:58:b9:ac:d9:83:03:
                    5d:ac:58:ff:66:7b:2c:84:9c:c2:92:0a:b0:0c:89:
                    e0:d4:d1:81:20:b7:c6:88:10:15:c7:bd:10:44:a6:
                    20:70:3b:42:d0:e6:de:38:9f:37:92:8b:88:fe:21:
                    a6:24:98:c6:b8:f1:29:73:57:32:7b:bd:e8:df:01:
                    73:96:8b:f8:04:53:17:3d:bb:9d:a2:40:87:63:1e:
                    3e:96:fb:39:50:48:d2:d1:19:d1:52:cf:41:12:03:
                    a2:c1:84:f8:81:da:5f:92:7b:c5:36:c5:d7:0c:1c:
                    39:12:73:c6:85:a5:57:47:d8:44:45:01:2b:61:e7:
                    8a:aa:5f:15:6f:ee:f9:54:eb:3b:dd:86:f5:0a:0e:
                    c5:95:7f:5e:48:97:d5:38:4f:fc:2c:7c:d1:30:4d:
                    ad:66:c6:a6:fe:25:2c:b6:86:63:fc:38:f4:ce:a3:
                    0f:97:33:95:8a:8f:eb:f6:be:5f:d4:7d:cc:34:13:
                    5c:11:5b:9f:79:cd:48:e7:ac:80:7d:7e:2e:5a:3b:
                    e7:b4:d4:bf:27:1d:9a:df:e2:23:f7:2d:67:b6:b6:
                    5e:cd:93:91:a2:cc:fe:3c:f1:d8:11:6f:fc:b7:14:
                    5f:bf
                Exponent: 65537 (0x10001)
        X509v3 extensions:
            X509v3 Basic Constraints: 
                CA:FALSE
            X509v3 Subject Key Identifier: 
                42:3A:DD:E8:39:B6:3A:B1:E7:6E:7E:78:87:FF:05:EA:7E:5E:B4:C5
            X509v3 Authority Key Identifier: 
                keyid:D3:E2:63:C9:00:7D:15:32:1B:7D:2F:91:28:AA:59:B5:6B:F3:45:2D
                DirName:/C=00/ST=test/L=TEST ,.\/<>  ?;:@~  []!%^  *()-=  _\+| (23) TEST/O=example.org/OU=TEST esc {  \xC2\xA3 \xC2\xAC (4) TEST}/CN=easytls-unit-test/emailAddress=me@example.net
                serial:67:B7:C3:20:42:99:88:4F:0A:3E:02:D1:91:C4:B0:1F:C2:AD:1D:6A
            X509v3 Extended Key Usage: 
                TLS Web Client Authentication
            X509v3 Key Usage: 
                Digital Signature
    Signature Algorithm: sha256WithRSAEncryption
    Signature Value:
        4b:a9:ac:95:23:74:83:2b:ff:1e:21:9b:4f:84:90:6b:89:5d:
        ca:69:7f:b7:e9:02:7a:4c:81:f8:a8:d9:12:64:72:db:20:99:
        5f:bd:81:ad:93:9a:1c:d6:27:56:78:9b:09:84:9e:9f:26:f9:
        c8:e1:b3:cb:7e:ff:e0:26:a0:8e:b1:e9:c9:a8:d3:9e:73:08:
        97:8a:71:9c:ef:9d:c2:85:be:f9:30:3e:07:a9:bc:55:ed:89:
        ee:f8:6c:b2:fd:35:55:6d:7f:a6:9e:a0:6b:20:cf:50:f1:53:
        e2:9e:4b:eb:a8:c6:4b:48:85:0f:f0:19:c7:e6:a7:8d:51:43:
        53:61:2c:dc:e1:e8:25:f4:2e:9e:be:79:46:f8:ae:8c:8b:65:
        60:5b:b9:89:78:e1:b2:31:d3:23:a3:d1:82:e2:4f:32:01:83:
        9e:c6:c1:14:ca:ca:8c:85:4f:2f:22:87:fd:f4:68:3d:d2:e8:
        42:35:13:43:e3:c8:78:1a:2a:a9:20:aa:c0:1d:b0:6d:6b:fd:
        42:72:49:02:44:2e:a1:eb:e2:8c:61:d1:00:bc:aa:b0:a8:93:
        3e:02:d1:ac:42:d8:a2:36:8c:9c:0f:a6:dd:b8:d4:6d:b5:60:
        6d:c7:49:7e:9a:cd:f7:41:c7:65:09:67:02:e4:13:aa:f4:8b:
        9f:e4:17:42
-----BEGIN CERTIFICATE-----
MIIFazCCBFOgAwIBAgIBCTANBgkqhkiG9w0BAQsFADCBzDELMAkGA1UEBhMCMDAx
DTALBgNVBAgMBHRlc3QxNzA1BgNVBAcMLlRFU1QgLC4vPD4gID87OkB+ICBbXSEl
XiAgKigpLT0gIF8rfCAoMjMpIFRFU1QxFDASBgNVBAoMC2V4YW1wbGUub3JnMSQw
IgYDVQQLDBtURVNUIGVzYyB7ICDCoyDCrCAoNCkgVEVTVH0xGjAYBgNVBAMMEWVh
c3l0bHMtdW5pdC10ZXN0MR0wGwYJKoZIhvcNAQkBFg5tZUBleGFtcGxlLm5ldDAe
Fw0yMjAyMjUyMzQwMjlaFw0yNDA1MzAyMzQwMjlaMIG+MQswCQYDVQQGEwIwMDEN
MAsGA1UECAwEdGVzdDE3MDUGA1UEBwwuVEVTVCAsLi88PiAgPzs6QH4gIFtdISVe
ICAqKCktPSAgXyt8ICgyMykgVEVTVDEUMBIGA1UECgwLZXhhbXBsZS5vcmcxJDAi
BgNVBAsMG1RFU1QgZXNjIHsgIMKjIMKsICg0KSBURVNUfTEMMAoGA1UEAwwDYzAz
MR0wGwYJKoZIhvcNAQkBFg5tZUBleGFtcGxlLm5ldDCCASIwDQYJKoZIhvcNAQEB
BQADggEPADCCAQoCggEBAJ3IsOTf7xoJJ//r+kIkiUWRHWZNxN2DWLms2YMDXaxY
/2Z7LIScwpIKsAyJ4NTRgSC3xogQFce9EESmIHA7QtDm3jifN5KLiP4hpiSYxrjx
KXNXMnu96N8Bc5aL+ARTFz27naJAh2MePpb7OVBI0tEZ0VLPQRIDosGE+IHaX5J7
xTbF1wwcORJzxoWlV0fYREUBK2HniqpfFW/u+VTrO92G9QoOxZV/XkiX1ThP/Cx8
0TBNrWbGpv4lLLaGY/w49M6jD5czlYqP6/a+X9R9zDQTXBFbn3nNSOesgH1+Llo7
57TUvycdmt/iI/ctZ7a2Xs2TkaLM/jzx2BFv/LcUX78CAwEAAaOCAWIwggFeMAkG
A1UdEwQCMAAwHQYDVR0OBBYEFEI63eg5tjqx525+eIf/Bep+XrTFMIIBDgYDVR0j
BIIBBTCCAQGAFNPiY8kAfRUyG30vkSiqWbVr80UtoYHSpIHPMIHMMQswCQYDVQQG
EwIwMDENMAsGA1UECAwEdGVzdDE3MDUGA1UEBwwuVEVTVCAsLi88PiAgPzs6QH4g
IFtdISVeICAqKCktPSAgXyt8ICgyMykgVEVTVDEUMBIGA1UECgwLZXhhbXBsZS5v
cmcxJDAiBgNVBAsMG1RFU1QgZXNjIHsgIMKjIMKsICg0KSBURVNUfTEaMBgGA1UE
AwwRZWFzeXRscy11bml0LXRlc3QxHTAbBgkqhkiG9w0BCQEWDm1lQGV4YW1wbGUu
bmV0ghRnt8MgQpmITwo+AtGRxLAfwq0dajATBgNVHSUEDDAKBggrBgEFBQcDAjAL
BgNVHQ8EBAMCB4AwDQYJKoZIhvcNAQELBQADggEBAEuprJUjdIMr/x4hm0+EkGuJ
Xcppf7fpAnpMgfio2RJkctsgmV+9ga2TmhzWJ1Z4mwmEnp8m+cjhs8t+/+AmoI6x
6cmo055zCJeKcZzvncKFvvkwPgepvFXtie74bLL9NVVtf6aeoGsgz1DxU+KeS+uo
xktIhQ/wGcfmp41RQ1NhLNzh6CX0Lp6+eUb4royLZWBbuYl44bIx0yOj0YLiTzIB
g57GwRTKyoyFTy8ih/30aD3S6EI1E0PjyHgaKqkgqsAdsG1r/UJySQJELqHr4oxh
0QC8qrCokz4C0axC2KI2jJwPpt241G21YG3HSX6azfdBx2UJZwLkE6r0i5/kF0I=
-----END CERTIFICATE-----
