Certificate:
    Data:
        Version: 3 (0x2)
        Serial Number:
            d6:00:53:37:b5:4c:1a:86:b7:b1:c8:0a:cb:6f:97:80
        Signature Algorithm: sha256WithRSAEncryption
        Issuer: CN=easytls-unit-test
        Validity
            Not Before: Feb 26 00:19:07 2022 GMT
            Not After : May 31 00:19:07 2024 GMT
        Subject: CN=c03
        Subject Public Key Info:
            Public Key Algorithm: rsaEncryption
                Public-Key: (2048 bit)
                Modulus:
                    00:a0:2a:53:08:21:e5:4d:7b:1c:bc:3c:39:eb:c1:
                    a8:a5:4f:c8:6b:c1:96:0c:ae:18:50:88:54:22:ab:
                    40:c7:ce:56:f7:4f:1b:14:86:e7:35:5a:60:38:77:
                    4e:94:06:66:e4:a6:35:5c:98:23:12:b4:84:6c:13:
                    ea:fb:74:4e:bc:e2:30:17:79:c0:0c:53:20:9e:bd:
                    1f:f5:77:8d:b5:2f:f2:ec:ab:b3:d0:ad:81:f0:b9:
                    9f:03:0b:f3:fe:7e:4b:79:59:b0:6d:54:a4:a0:e4:
                    0f:f3:33:ce:25:74:e6:ab:86:57:9b:4c:f0:e3:6c:
                    a0:b0:fe:af:a9:a1:38:37:bb:9d:27:06:98:42:0d:
                    2a:d3:0c:40:67:83:a2:78:88:fc:88:ea:19:9c:88:
                    69:ee:39:32:c3:f6:0c:dc:f9:40:e2:94:ea:de:a5:
                    ab:76:5c:4f:af:83:f3:13:d5:ad:29:a9:40:60:ca:
                    05:93:52:75:2f:fa:19:80:ce:83:b4:f8:7a:9e:e3:
                    d1:e7:7f:59:e5:c0:4c:95:f3:52:a8:c5:7f:c7:06:
                    ed:8e:fe:72:e6:79:7d:51:bb:99:f8:e9:d8:60:58:
                    49:fa:16:0d:81:39:fe:c1:c0:6d:f2:af:aa:1a:c3:
                    06:0e:3a:1c:11:f6:07:03:4d:05:1d:7b:2e:35:05:
                    0c:c7
                Exponent: 65537 (0x10001)
        X509v3 extensions:
            X509v3 Basic Constraints: 
                CA:FALSE
            X509v3 Subject Key Identifier: 
                5D:91:F5:45:AB:C1:7D:69:CA:6A:B7:AC:0B:47:02:0D:E7:E9:96:43
            X509v3 Authority Key Identifier: 
                keyid:7F:DB:A7:04:5F:A0:23:1F:C0:6E:CD:55:F0:15:C6:27:55:BC:80:B8
                DirName:/CN=easytls-unit-test
                serial:25:21:EE:52:13:98:94:DC:17:DA:54:03:39:A8:CB:E2:42:92:23:4D
            X509v3 Extended Key Usage: 
                TLS Web Client Authentication
            X509v3 Key Usage: 
                Digital Signature
    Signature Algorithm: sha256WithRSAEncryption
    Signature Value:
        83:e1:6c:ea:7a:63:1f:6a:a4:97:76:aa:a6:2a:68:a9:a2:e5:
        43:6c:db:11:50:3e:a2:ad:46:33:80:b8:f9:b5:0a:dc:26:b2:
        a2:a7:5e:c0:b6:63:52:76:99:2c:d5:1b:2c:fc:4e:17:f5:ea:
        83:c7:e7:b6:b5:8e:6d:23:48:4d:df:37:ce:dd:87:99:10:e9:
        34:30:5b:2a:89:1d:c5:15:86:f8:43:b0:4e:bf:19:e6:41:a3:
        c0:05:fe:38:2d:cc:a0:7c:62:93:19:42:23:5b:d9:34:eb:fb:
        db:d3:8f:84:e1:52:2d:5b:10:03:47:59:43:f9:13:bf:b2:d8:
        88:83:13:dc:a7:97:c3:bf:7a:b3:7a:df:46:70:8f:4e:f7:93:
        1e:69:52:79:0f:96:4b:ae:7b:c7:c7:95:c5:f2:6c:ca:41:ec:
        a9:07:d4:91:dc:2f:11:ae:eb:bd:5e:95:29:64:15:fa:31:5a:
        04:d6:37:ad:ff:56:56:93:27:d8:58:88:19:71:88:6d:05:c3:
        26:a6:14:46:c2:85:72:da:6b:3d:c5:26:79:a3:72:33:48:ab:
        99:f8:7c:5b:11:1b:14:8b:e4:f2:75:44:76:e7:8e:c3:46:4f:
        01:d4:8b:b5:fb:5f:92:20:5b:9b:25:d8:16:39:0e:dd:4b:de:
        5a:7a:e7:4e
-----BEGIN CERTIFICATE-----
MIIDXjCCAkagAwIBAgIRANYAUze1TBqGt7HICstvl4AwDQYJKoZIhvcNAQELBQAw
HDEaMBgGA1UEAwwRZWFzeXRscy11bml0LXRlc3QwHhcNMjIwMjI2MDAxOTA3WhcN
MjQwNTMxMDAxOTA3WjAOMQwwCgYDVQQDDANjMDMwggEiMA0GCSqGSIb3DQEBAQUA
A4IBDwAwggEKAoIBAQCgKlMIIeVNexy8PDnrwailT8hrwZYMrhhQiFQiq0DHzlb3
TxsUhuc1WmA4d06UBmbkpjVcmCMStIRsE+r7dE684jAXecAMUyCevR/1d421L/Ls
q7PQrYHwuZ8DC/P+fkt5WbBtVKSg5A/zM84ldOarhlebTPDjbKCw/q+poTg3u50n
BphCDSrTDEBng6J4iPyI6hmciGnuOTLD9gzc+UDilOrepat2XE+vg/MT1a0pqUBg
ygWTUnUv+hmAzoO0+Hqe49Hnf1nlwEyV81KoxX/HBu2O/nLmeX1Ru5n46dhgWEn6
Fg2BOf7BwG3yr6oawwYOOhwR9gcDTQUdey41BQzHAgMBAAGjgagwgaUwCQYDVR0T
BAIwADAdBgNVHQ4EFgQUXZH1RavBfWnKaresC0cCDefplkMwVwYDVR0jBFAwToAU
f9unBF+gIx/Abs1V8BXGJ1W8gLihIKQeMBwxGjAYBgNVBAMMEWVhc3l0bHMtdW5p
dC10ZXN0ghQlIe5SE5iU3BfaVAM5qMviQpIjTTATBgNVHSUEDDAKBggrBgEFBQcD
AjALBgNVHQ8EBAMCB4AwDQYJKoZIhvcNAQELBQADggEBAIPhbOp6Yx9qpJd2qqYq
aKmi5UNs2xFQPqKtRjOAuPm1CtwmsqKnXsC2Y1J2mSzVGyz8Thf16oPH57a1jm0j
SE3fN87dh5kQ6TQwWyqJHcUVhvhDsE6/GeZBo8AF/jgtzKB8YpMZQiNb2TTr+9vT
j4ThUi1bEANHWUP5E7+y2IiDE9ynl8O/erN630Zwj073kx5pUnkPlkuue8fHlcXy
bMpB7KkH1JHcLxGu671elSlkFfoxWgTWN63/VlaTJ9hYiBlxiG0FwyamFEbChXLa
az3FJnmjcjNIq5n4fFsRGxSL5PJ1RHbnjsNGTwHUi7X7X5IgW5sl2BY5Dt1L3lp6
504=
-----END CERTIFICATE-----
