Certificate:
    Data:
        Version: 3 (0x2)
        Serial Number: 1 (0x1)
        Signature Algorithm: sha256WithRSAEncryption
        Issuer: C=00, ST=test, L=TEST ,.\/<>  ?;:@~  []!%^  *()-=  _\+| (23) TEST, O=example.org, OU=TEST esc {  \xC2\xA3 \xC2\xAC (4) TEST}, CN=easytls-unit-test/emailAddress=me@example.net
        Validity
            Not Before: Feb 25 23:40:24 2022 GMT
            Not After : May 30 23:40:24 2024 GMT
        Subject: C=00, ST=test, L=TEST ,.\/<>  ?;:@~  []!%^  *()-=  _\+| (23) TEST, O=example.org, OU=TEST esc {  \xC2\xA3 \xC2\xAC (4) TEST}, CN=s01/emailAddress=me@example.net
        Subject Public Key Info:
            Public Key Algorithm: rsaEncryption
                Public-Key: (2048 bit)
                Modulus:
                    00:bd:80:05:d2:b2:60:05:62:fe:55:b4:41:60:4f:
                    fd:84:71:4e:af:57:2b:33:6c:2c:e8:ad:e4:a9:90:
                    ed:98:aa:bd:c0:31:8f:ae:1a:29:33:60:5f:58:75:
                    a8:4c:e3:d0:f2:73:d8:20:df:71:e4:d0:55:f9:27:
                    d1:23:ad:ed:cb:3b:ad:2c:1b:bd:0f:1e:05:35:ba:
                    64:4e:64:a3:77:7d:ed:47:96:fa:c3:d0:d8:12:50:
                    26:bf:1a:28:31:11:11:bc:1c:4b:77:c7:44:c4:b5:
                    b9:f6:8b:ed:7d:f3:5c:f9:05:b0:31:00:49:b5:7e:
                    a0:fb:57:05:89:3e:3c:6d:86:f6:9d:49:a6:12:d3:
                    f3:0c:78:bd:f3:43:34:bc:7f:ab:6c:9f:ed:ed:08:
                    0b:d4:59:10:76:4e:49:bc:e0:9c:5a:d9:59:a7:4c:
                    5e:49:50:37:71:98:67:9c:07:68:e0:a3:fe:48:b9:
                    3f:27:38:0a:70:1a:80:4a:cc:5d:ad:78:6e:f1:ac:
                    79:f4:4e:3f:02:f6:3e:f5:f2:60:52:fc:11:50:59:
                    33:66:c0:6d:76:27:87:a8:7a:52:84:2a:de:22:68:
                    44:9c:7f:46:58:90:df:13:2c:0e:a0:41:da:2f:ae:
                    57:0e:1a:5b:ee:d7:18:df:52:b6:b8:69:86:9f:79:
                    69:5f
                Exponent: 65537 (0x10001)
        X509v3 extensions:
            X509v3 Basic Constraints: 
                CA:FALSE
            X509v3 Subject Key Identifier: 
                31:63:2F:AD:33:BB:BE:56:55:09:2E:67:F2:27:3D:D4:53:74:AE:A3
            X509v3 Authority Key Identifier: 
                keyid:D3:E2:63:C9:00:7D:15:32:1B:7D:2F:91:28:AA:59:B5:6B:F3:45:2D
                DirName:/C=00/ST=test/L=TEST ,.\/<>  ?;:@~  []!%^  *()-=  _\+| (23) TEST/O=example.org/OU=TEST esc {  \xC2\xA3 \xC2\xAC (4) TEST}/CN=easytls-unit-test/emailAddress=me@example.net
                serial:67:B7:C3:20:42:99:88:4F:0A:3E:02:D1:91:C4:B0:1F:C2:AD:1D:6A
            X509v3 Extended Key Usage: 
                TLS Web Server Authentication
            X509v3 Key Usage: 
                Digital Signature, Key Encipherment
            X509v3 Subject Alternative Name: 
                DNS:s01
    Signature Algorithm: sha256WithRSAEncryption
    Signature Value:
        97:db:af:44:2a:65:1a:de:f2:39:ef:67:41:c7:26:3e:7f:29:
        67:79:bf:43:f7:a5:89:77:15:c1:98:6a:3d:c2:1e:49:1b:34:
        48:bc:c3:b8:9d:87:4b:9f:c7:29:6d:6a:5a:26:3e:04:f3:dc:
        ed:84:76:c5:a8:a5:54:b1:56:1c:23:37:0d:b3:f0:d0:81:ce:
        e2:91:de:20:f2:72:77:4b:00:a2:05:29:d1:6f:93:cc:90:7a:
        da:2e:7a:cc:cf:e3:76:d4:19:08:c6:19:27:5b:fb:68:bb:d4:
        62:27:6e:d1:a9:9c:8a:bd:ef:ed:9b:d5:8e:36:43:de:f1:5f:
        7b:7d:32:1f:24:8a:87:a6:77:e9:59:e5:8a:f6:2f:b8:69:0c:
        08:ad:c5:d5:e9:bb:59:e0:ee:7d:61:7e:86:9d:8b:0f:55:a5:
        4d:33:83:34:02:87:1b:dc:e2:32:5a:79:31:ef:de:df:97:7a:
        6a:86:14:a2:11:bd:07:b1:7d:3e:95:31:61:cd:f9:69:d6:1e:
        dc:77:68:be:09:dd:e2:d4:d1:d5:e2:c2:da:bd:6f:d6:a9:e1:
        4d:81:da:e4:73:c4:a5:6f:95:95:0c:ee:b6:70:ef:ee:6e:89:
        9b:8b:c8:c9:0c:89:0f:9f:2a:75:5e:ae:96:30:e6:3b:4e:6d:
        64:35:c1:1f
-----BEGIN CERTIFICATE-----
MIIFezCCBGOgAwIBAgIBATANBgkqhkiG9w0BAQsFADCBzDELMAkGA1UEBhMCMDAx
DTALBgNVBAgMBHRlc3QxNzA1BgNVBAcMLlRFU1QgLC4vPD4gID87OkB+ICBbXSEl
XiAgKigpLT0gIF8rfCAoMjMpIFRFU1QxFDASBgNVBAoMC2V4YW1wbGUub3JnMSQw
IgYDVQQLDBtURVNUIGVzYyB7ICDCoyDCrCAoNCkgVEVTVH0xGjAYBgNVBAMMEWVh
c3l0bHMtdW5pdC10ZXN0MR0wGwYJKoZIhvcNAQkBFg5tZUBleGFtcGxlLm5ldDAe
Fw0yMjAyMjUyMzQwMjRaFw0yNDA1MzAyMzQwMjRaMIG+MQswCQYDVQQGEwIwMDEN
MAsGA1UECAwEdGVzdDE3MDUGA1UEBwwuVEVTVCAsLi88PiAgPzs6QH4gIFtdISVe
ICAqKCktPSAgXyt8ICgyMykgVEVTVDEUMBIGA1UECgwLZXhhbXBsZS5vcmcxJDAi
BgNVBAsMG1RFU1QgZXNjIHsgIMKjIMKsICg0KSBURVNUfTEMMAoGA1UEAwwDczAx
MR0wGwYJKoZIhvcNAQkBFg5tZUBleGFtcGxlLm5ldDCCASIwDQYJKoZIhvcNAQEB
BQADggEPADCCAQoCggEBAL2ABdKyYAVi/lW0QWBP/YRxTq9XKzNsLOit5KmQ7Ziq
vcAxj64aKTNgX1h1qEzj0PJz2CDfceTQVfkn0SOt7cs7rSwbvQ8eBTW6ZE5ko3d9
7UeW+sPQ2BJQJr8aKDEREbwcS3fHRMS1ufaL7X3zXPkFsDEASbV+oPtXBYk+PG2G
9p1JphLT8wx4vfNDNLx/q2yf7e0IC9RZEHZOSbzgnFrZWadMXklQN3GYZ5wHaOCj
/ki5Pyc4CnAagErMXa14bvGsefROPwL2PvXyYFL8EVBZM2bAbXYnh6h6UoQq3iJo
RJx/RliQ3xMsDqBB2i+uVw4aW+7XGN9Strhphp95aV8CAwEAAaOCAXIwggFuMAkG
A1UdEwQCMAAwHQYDVR0OBBYEFDFjL60zu75WVQkuZ/InPdRTdK6jMIIBDgYDVR0j
BIIBBTCCAQGAFNPiY8kAfRUyG30vkSiqWbVr80UtoYHSpIHPMIHMMQswCQYDVQQG
EwIwMDENMAsGA1UECAwEdGVzdDE3MDUGA1UEBwwuVEVTVCAsLi88PiAgPzs6QH4g
IFtdISVeICAqKCktPSAgXyt8ICgyMykgVEVTVDEUMBIGA1UECgwLZXhhbXBsZS5v
cmcxJDAiBgNVBAsMG1RFU1QgZXNjIHsgIMKjIMKsICg0KSBURVNUfTEaMBgGA1UE
AwwRZWFzeXRscy11bml0LXRlc3QxHTAbBgkqhkiG9w0BCQEWDm1lQGV4YW1wbGUu
bmV0ghRnt8MgQpmITwo+AtGRxLAfwq0dajATBgNVHSUEDDAKBggrBgEFBQcDATAL
BgNVHQ8EBAMCBaAwDgYDVR0RBAcwBYIDczAxMA0GCSqGSIb3DQEBCwUAA4IBAQCX
269EKmUa3vI572dBxyY+fylneb9D96WJdxXBmGo9wh5JGzRIvMO4nYdLn8cpbWpa
Jj4E89zthHbFqKVUsVYcIzcNs/DQgc7ikd4g8nJ3SwCiBSnRb5PMkHraLnrMz+N2
1BkIxhknW/tou9RiJ27RqZyKve/tm9WONkPe8V97fTIfJIqHpnfpWeWK9i+4aQwI
rcXV6btZ4O59YX6GnYsPVaVNM4M0Aocb3OIyWnkx797fl3pqhhSiEb0HsX0+lTFh
zflp1h7cd2i+Cd3i1NHV4sLavW/WqeFNgdrkc8Slb5WVDO62cO/ubombi8jJDIkP
nyp1Xq6WMOY7Tm1kNcEf
-----END CERTIFICATE-----
