Certificate:
    Data:
        Version: 3 (0x2)
        Serial Number: 3 (0x3)
        Signature Algorithm: sha256WithRSAEncryption
        Issuer: C=00, ST=test, L=TEST ,.\/<>  ?;:@~  []!%^  *()-=  _\+| (23) TEST, O=example.org, OU=TEST esc {  \xC2\xA3 \xC2\xAC (4) TEST}, CN=easytls-unit-test/emailAddress=me@example.net
        Validity
            Not Before: Feb 25 23:40:25 2022 GMT
            Not After : May 30 23:40:25 2024 GMT
        Subject: C=00, ST=test, L=TEST ,.\/<>  ?;:@~  []!%^  *()-=  _\+| (23) TEST, O=example.org, OU=TEST esc {  \xC2\xA3 \xC2\xAC (4) TEST}, CN=s-auth/emailAddress=me@example.net
        Subject Public Key Info:
            Public Key Algorithm: rsaEncryption
                Public-Key: (2048 bit)
                Modulus:
                    00:cf:08:37:02:a6:a6:be:66:74:c7:7e:5c:be:3a:
                    8e:f7:48:73:69:05:06:56:c9:00:42:61:0c:9b:bf:
                    d7:e2:6c:82:c9:77:e6:ab:ae:88:8e:2d:8c:f3:8d:
                    b2:83:06:00:2b:df:e0:55:aa:71:52:1b:dc:4f:cf:
                    ec:6c:50:6d:0d:e6:89:3a:2b:03:3f:ad:cd:35:55:
                    45:87:72:6e:f0:34:bd:19:34:19:06:72:9f:95:2d:
                    02:48:d6:60:16:f4:04:72:b4:1c:e9:e9:a2:a0:09:
                    23:70:09:3b:58:de:14:a7:4f:0f:b1:c8:e8:03:39:
                    9e:62:de:15:9b:0e:b5:cf:cd:2d:9a:c8:45:61:bf:
                    f7:d4:50:43:9b:e6:29:c7:ab:2a:4f:0a:fc:1b:f0:
                    55:f2:9d:4d:dd:40:86:d5:97:ea:fe:c0:de:8d:85:
                    a9:02:7b:05:f1:8a:0a:0d:8f:47:2c:71:0a:59:f7:
                    86:0d:84:d0:6c:5c:9f:aa:51:7a:44:c4:03:bc:f4:
                    b6:b6:46:e1:f1:e3:15:33:9b:3c:90:36:4b:c1:55:
                    45:15:12:24:4a:ef:fb:39:ff:46:f5:5c:f0:ab:c8:
                    cd:fb:9f:be:a0:57:18:3d:a3:74:b4:bb:b7:51:a8:
                    f6:a5:ea:0b:76:ca:9c:ca:77:cd:2e:f3:ec:53:6d:
                    bc:71
                Exponent: 65537 (0x10001)
        X509v3 extensions:
            X509v3 Basic Constraints: 
                CA:FALSE
            X509v3 Subject Key Identifier: 
                02:45:AF:BC:9A:8E:72:EB:A9:BF:1C:A0:B9:3A:59:09:E4:BC:B1:50
            X509v3 Authority Key Identifier: 
                keyid:D3:E2:63:C9:00:7D:15:32:1B:7D:2F:91:28:AA:59:B5:6B:F3:45:2D
                DirName:/C=00/ST=test/L=TEST ,.\/<>  ?;:@~  []!%^  *()-=  _\+| (23) TEST/O=example.org/OU=TEST esc {  \xC2\xA3 \xC2\xAC (4) TEST}/CN=easytls-unit-test/emailAddress=me@example.net
                serial:67:B7:C3:20:42:99:88:4F:0A:3E:02:D1:91:C4:B0:1F:C2:AD:1D:6A
            X509v3 Extended Key Usage: 
                TLS Web Server Authentication
            X509v3 Key Usage: 
                Digital Signature, Key Encipherment
            X509v3 Subject Alternative Name: 
                DNS:s-auth
    Signature Algorithm: sha256WithRSAEncryption
    Signature Value:
        2e:53:db:6b:ae:4b:d8:2b:df:21:04:a7:7d:3d:0e:73:25:4c:
        2c:97:12:b1:1a:70:f1:6e:a1:5c:d7:e4:fc:96:a1:56:77:2a:
        a0:08:bd:4b:ad:a9:a0:14:3e:5f:36:9d:d9:0c:8b:ff:5e:38:
        db:42:ea:db:65:08:31:84:76:61:61:17:04:b8:29:74:9b:3e:
        9e:fa:55:6c:d7:4f:7e:93:78:7a:99:14:23:84:cc:cf:29:c9:
        14:2d:70:02:f9:7a:20:d3:6a:f6:5f:76:71:c7:4d:25:40:a3:
        61:eb:3b:33:61:79:ff:90:28:d4:19:0a:25:65:75:1c:10:46:
        60:3a:63:ed:f7:27:e0:60:61:b6:6f:da:f4:80:dd:f4:5e:bd:
        71:3b:5c:ab:db:5c:a4:08:68:79:68:fc:f4:4c:10:b5:84:5e:
        ad:35:f1:eb:06:c0:8d:ea:8e:56:94:5c:6f:4c:bd:29:c5:6f:
        f5:dc:41:f8:5b:a6:68:8a:72:68:a0:5e:10:0f:a1:b4:45:a5:
        60:3d:9d:a7:94:e3:7f:4a:4e:1b:c3:6b:ea:38:79:91:97:7b:
        03:e3:5c:30:ae:aa:ba:2a:ed:09:2f:72:33:f6:0a:61:ed:6c:
        08:45:26:4f:85:b3:36:69:39:13:17:eb:fd:0b:41:9b:69:ae:
        53:29:2d:61
-----BEGIN CERTIFICATE-----
MIIFgTCCBGmgAwIBAgIBAzANBgkqhkiG9w0BAQsFADCBzDELMAkGA1UEBhMCMDAx
DTALBgNVBAgMBHRlc3QxNzA1BgNVBAcMLlRFU1QgLC4vPD4gID87OkB+ICBbXSEl
XiAgKigpLT0gIF8rfCAoMjMpIFRFU1QxFDASBgNVBAoMC2V4YW1wbGUub3JnMSQw
IgYDVQQLDBtURVNUIGVzYyB7ICDCoyDCrCAoNCkgVEVTVH0xGjAYBgNVBAMMEWVh
c3l0bHMtdW5pdC10ZXN0MR0wGwYJKoZIhvcNAQkBFg5tZUBleGFtcGxlLm5ldDAe
Fw0yMjAyMjUyMzQwMjVaFw0yNDA1MzAyMzQwMjVaMIHBMQswCQYDVQQGEwIwMDEN
MAsGA1UECAwEdGVzdDE3MDUGA1UEBwwuVEVTVCAsLi88PiAgPzs6QH4gIFtdISVe
ICAqKCktPSAgXyt8ICgyMykgVEVTVDEUMBIGA1UECgwLZXhhbXBsZS5vcmcxJDAi
BgNVBAsMG1RFU1QgZXNjIHsgIMKjIMKsICg0KSBURVNUfTEPMA0GA1UEAwwGcy1h
dXRoMR0wGwYJKoZIhvcNAQkBFg5tZUBleGFtcGxlLm5ldDCCASIwDQYJKoZIhvcN
AQEBBQADggEPADCCAQoCggEBAM8INwKmpr5mdMd+XL46jvdIc2kFBlbJAEJhDJu/
1+Jsgsl35quuiI4tjPONsoMGACvf4FWqcVIb3E/P7GxQbQ3miTorAz+tzTVVRYdy
bvA0vRk0GQZyn5UtAkjWYBb0BHK0HOnpoqAJI3AJO1jeFKdPD7HI6AM5nmLeFZsO
tc/NLZrIRWG/99RQQ5vmKcerKk8K/BvwVfKdTd1AhtWX6v7A3o2FqQJ7BfGKCg2P
RyxxCln3hg2E0Gxcn6pRekTEA7z0trZG4fHjFTObPJA2S8FVRRUSJErv+zn/RvVc
8KvIzfufvqBXGD2jdLS7t1Go9qXqC3bKnMp3zS7z7FNtvHECAwEAAaOCAXUwggFx
MAkGA1UdEwQCMAAwHQYDVR0OBBYEFAJFr7yajnLrqb8coLk6WQnkvLFQMIIBDgYD
VR0jBIIBBTCCAQGAFNPiY8kAfRUyG30vkSiqWbVr80UtoYHSpIHPMIHMMQswCQYD
VQQGEwIwMDENMAsGA1UECAwEdGVzdDE3MDUGA1UEBwwuVEVTVCAsLi88PiAgPzs6
QH4gIFtdISVeICAqKCktPSAgXyt8ICgyMykgVEVTVDEUMBIGA1UECgwLZXhhbXBs
ZS5vcmcxJDAiBgNVBAsMG1RFU1QgZXNjIHsgIMKjIMKsICg0KSBURVNUfTEaMBgG
A1UEAwwRZWFzeXRscy11bml0LXRlc3QxHTAbBgkqhkiG9w0BCQEWDm1lQGV4YW1w
bGUubmV0ghRnt8MgQpmITwo+AtGRxLAfwq0dajATBgNVHSUEDDAKBggrBgEFBQcD
ATALBgNVHQ8EBAMCBaAwEQYDVR0RBAowCIIGcy1hdXRoMA0GCSqGSIb3DQEBCwUA
A4IBAQAuU9trrkvYK98hBKd9PQ5zJUwslxKxGnDxbqFc1+T8lqFWdyqgCL1Lramg
FD5fNp3ZDIv/XjjbQurbZQgxhHZhYRcEuCl0mz6e+lVs109+k3h6mRQjhMzPKckU
LXAC+Xog02r2X3Zxx00lQKNh6zszYXn/kCjUGQolZXUcEEZgOmPt9yfgYGG2b9r0
gN30Xr1xO1yr21ykCGh5aPz0TBC1hF6tNfHrBsCN6o5WlFxvTL0pxW/13EH4W6Zo
inJooF4QD6G0RaVgPZ2nlON/Sk4bw2vqOHmRl3sD41wwrqq6Ku0JL3Iz9gph7WwI
RSZPhbM2aTkTF+v9C0Gbaa5TKS1h
-----END CERTIFICATE-----
