Certificate:
    Data:
        Version: 3 (0x2)
        Serial Number: 8 (0x8)
        Signature Algorithm: sha256WithRSAEncryption
        Issuer: C=00, ST=test, L=TEST ,.\/<>  ?;:@~  []!%^  *()-=  _\+| (23) TEST, O=example.org, OU=TEST esc {  \xC2\xA3 \xC2\xAC (4) TEST}, CN=easytls-unit-test/emailAddress=me@example.net
        Validity
            Not Before: Feb 25 23:40:28 2022 GMT
            Not After : May 30 23:40:28 2024 GMT
        Subject: C=00, ST=test, L=TEST ,.\/<>  ?;:@~  []!%^  *()-=  _\+| (23) TEST, O=example.org, OU=TEST esc {  \xC2\xA3 \xC2\xAC (4) TEST}, CN=c02/emailAddress=me@example.net
        Subject Public Key Info:
            Public Key Algorithm: rsaEncryption
                Public-Key: (2048 bit)
                Modulus:
                    00:de:48:94:79:92:60:c5:d7:4b:46:4a:42:8b:6f:
                    54:7e:fb:eb:58:ac:62:ea:e7:ab:e2:bc:d2:c8:1a:
                    dd:01:4e:7a:cc:fe:de:8e:30:bd:91:85:ae:f0:df:
                    78:aa:6b:df:d4:54:60:68:7b:e9:8c:d4:da:3e:80:
                    4d:41:27:e4:ef:57:9b:52:6b:07:a5:f2:f0:b2:12:
                    bf:a9:aa:d9:74:57:52:24:c1:57:6f:b3:cc:5d:6c:
                    78:30:08:3b:32:fb:b6:ae:f5:cb:b0:18:f3:87:d6:
                    45:c9:0e:6b:51:e4:57:84:ed:5f:9c:69:13:6d:24:
                    fd:7e:c0:91:7a:32:58:2c:4c:31:cb:1b:60:16:48:
                    5d:34:5e:4d:07:8f:c8:07:50:76:66:1d:c0:2a:b8:
                    ef:f5:57:f4:35:79:fa:69:e1:c3:14:79:73:3f:1d:
                    de:2b:2f:a5:bb:8c:13:a9:f6:b6:be:c6:e1:8a:9a:
                    7d:e6:eb:eb:14:ac:68:6a:43:e6:aa:e1:d7:67:1a:
                    a5:e2:c9:c2:b7:ad:7a:15:fe:a3:71:44:23:c1:09:
                    e2:0c:72:da:64:81:cf:d9:39:11:6c:fa:4c:ce:66:
                    4d:5e:33:9b:32:d6:14:a0:80:2f:06:d8:96:a5:6e:
                    6e:82:a3:af:3d:d0:7f:84:d3:90:44:cb:52:57:fb:
                    48:a3
                Exponent: 65537 (0x10001)
        X509v3 extensions:
            X509v3 Basic Constraints: 
                CA:FALSE
            X509v3 Subject Key Identifier: 
                27:6F:BF:6F:44:F9:8E:D9:58:9E:28:4F:8A:51:61:80:C1:61:02:3E
            X509v3 Authority Key Identifier: 
                keyid:D3:E2:63:C9:00:7D:15:32:1B:7D:2F:91:28:AA:59:B5:6B:F3:45:2D
                DirName:/C=00/ST=test/L=TEST ,.\/<>  ?;:@~  []!%^  *()-=  _\+| (23) TEST/O=example.org/OU=TEST esc {  \xC2\xA3 \xC2\xAC (4) TEST}/CN=easytls-unit-test/emailAddress=me@example.net
                serial:67:B7:C3:20:42:99:88:4F:0A:3E:02:D1:91:C4:B0:1F:C2:AD:1D:6A
            X509v3 Extended Key Usage: 
                TLS Web Client Authentication
            X509v3 Key Usage: 
                Digital Signature
    Signature Algorithm: sha256WithRSAEncryption
    Signature Value:
        57:ca:8f:7c:27:29:22:dc:59:d8:7c:b5:2c:d6:3e:45:15:94:
        1a:e6:3a:c2:94:bb:cb:5d:64:aa:39:55:16:6a:90:cc:7f:ee:
        6f:98:e3:9c:28:db:a5:07:b5:e8:5f:bb:ad:12:e4:ca:00:b9:
        24:d8:fc:c6:da:1a:2a:2c:7b:a8:50:00:38:09:57:bd:f4:b3:
        35:ea:6a:5c:8c:87:b5:7f:e5:4d:ce:2c:12:ef:29:56:ad:3b:
        52:57:e5:a3:e4:0e:f3:33:d5:14:4c:dd:05:e0:52:c7:8f:41:
        41:28:79:b0:fb:02:3b:d3:48:71:66:94:03:46:63:78:a9:37:
        20:57:f7:3a:47:50:e7:6e:8a:ba:43:38:39:6f:08:32:1d:56:
        b4:d9:2b:7f:f3:85:c2:de:47:ce:88:4a:b1:c8:b6:ae:11:01:
        ce:9b:ea:7b:bf:56:89:be:7f:46:a1:e5:33:ba:a9:64:59:24:
        a9:af:0c:04:5b:25:cd:eb:49:ad:fc:c5:79:b6:ce:5e:1a:fa:
        53:3d:b7:07:85:9e:5d:05:35:f5:3c:c2:bb:fe:0f:e7:14:16:
        00:ad:de:81:54:db:5f:24:99:f6:a5:45:eb:73:4f:86:73:19:
        55:af:24:c7:44:2c:6d:a8:f7:a1:6e:70:5c:0b:95:68:b4:b4:
        ef:6a:d9:b3
-----BEGIN CERTIFICATE-----
MIIFazCCBFOgAwIBAgIBCDANBgkqhkiG9w0BAQsFADCBzDELMAkGA1UEBhMCMDAx
DTALBgNVBAgMBHRlc3QxNzA1BgNVBAcMLlRFU1QgLC4vPD4gID87OkB+ICBbXSEl
XiAgKigpLT0gIF8rfCAoMjMpIFRFU1QxFDASBgNVBAoMC2V4YW1wbGUub3JnMSQw
IgYDVQQLDBtURVNUIGVzYyB7ICDCoyDCrCAoNCkgVEVTVH0xGjAYBgNVBAMMEWVh
c3l0bHMtdW5pdC10ZXN0MR0wGwYJKoZIhvcNAQkBFg5tZUBleGFtcGxlLm5ldDAe
Fw0yMjAyMjUyMzQwMjhaFw0yNDA1MzAyMzQwMjhaMIG+MQswCQYDVQQGEwIwMDEN
MAsGA1UECAwEdGVzdDE3MDUGA1UEBwwuVEVTVCAsLi88PiAgPzs6QH4gIFtdISVe
ICAqKCktPSAgXyt8ICgyMykgVEVTVDEUMBIGA1UECgwLZXhhbXBsZS5vcmcxJDAi
BgNVBAsMG1RFU1QgZXNjIHsgIMKjIMKsICg0KSBURVNUfTEMMAoGA1UEAwwDYzAy
MR0wGwYJKoZIhvcNAQkBFg5tZUBleGFtcGxlLm5ldDCCASIwDQYJKoZIhvcNAQEB
BQADggEPADCCAQoCggEBAN5IlHmSYMXXS0ZKQotvVH7761isYurnq+K80sga3QFO
esz+3o4wvZGFrvDfeKpr39RUYGh76YzU2j6ATUEn5O9Xm1JrB6Xy8LISv6mq2XRX
UiTBV2+zzF1seDAIOzL7tq71y7AY84fWRckOa1HkV4TtX5xpE20k/X7AkXoyWCxM
McsbYBZIXTReTQePyAdQdmYdwCq47/VX9DV5+mnhwxR5cz8d3isvpbuME6n2tr7G
4Yqafebr6xSsaGpD5qrh12capeLJwretehX+o3FEI8EJ4gxy2mSBz9k5EWz6TM5m
TV4zmzLWFKCALwbYlqVuboKjrz3Qf4TTkETLUlf7SKMCAwEAAaOCAWIwggFeMAkG
A1UdEwQCMAAwHQYDVR0OBBYEFCdvv29E+Y7ZWJ4oT4pRYYDBYQI+MIIBDgYDVR0j
BIIBBTCCAQGAFNPiY8kAfRUyG30vkSiqWbVr80UtoYHSpIHPMIHMMQswCQYDVQQG
EwIwMDENMAsGA1UECAwEdGVzdDE3MDUGA1UEBwwuVEVTVCAsLi88PiAgPzs6QH4g
IFtdISVeICAqKCktPSAgXyt8ICgyMykgVEVTVDEUMBIGA1UECgwLZXhhbXBsZS5v
cmcxJDAiBgNVBAsMG1RFU1QgZXNjIHsgIMKjIMKsICg0KSBURVNUfTEaMBgGA1UE
AwwRZWFzeXRscy11bml0LXRlc3QxHTAbBgkqhkiG9w0BCQEWDm1lQGV4YW1wbGUu
bmV0ghRnt8MgQpmITwo+AtGRxLAfwq0dajATBgNVHSUEDDAKBggrBgEFBQcDAjAL
BgNVHQ8EBAMCB4AwDQYJKoZIhvcNAQELBQADggEBAFfKj3wnKSLcWdh8tSzWPkUV
lBrmOsKUu8tdZKo5VRZqkMx/7m+Y45wo26UHtehfu60S5MoAuSTY/MbaGiose6hQ
ADgJV730szXqalyMh7V/5U3OLBLvKVatO1JX5aPkDvMz1RRM3QXgUsePQUEoebD7
AjvTSHFmlANGY3ipNyBX9zpHUOduirpDODlvCDIdVrTZK3/zhcLeR86ISrHItq4R
Ac6b6nu/Vom+f0ah5TO6qWRZJKmvDARbJc3rSa38xXm2zl4a+lM9tweFnl0FNfU8
wrv+D+cUFgCt3oFU218kmfalRetzT4ZzGVWvJMdELG2o96FucFwLlWi0tO9q2bM=
-----END CERTIFICATE-----
