Certificate:
    Data:
        Version: 3 (0x2)
        Serial Number: 14 (0xe)
        Signature Algorithm: sha256WithRSAEncryption
        Issuer: C=00, ST=test, L=TEST ,.\/<>  ?;:@~  []!%^  *()-=  _\+| (23) TEST, O=example.org, OU=TEST esc {  \xC2\xA3 \xC2\xAC (4) TEST}, CN=easytls-unit-test/emailAddress=me@example.net
        Validity
            Not Before: Feb 25 23:40:31 2022 GMT
            Not After : May 30 23:40:31 2024 GMT
        Subject: C=00, ST=test, L=TEST ,.\/<>  ?;:@~  []!%^  *()-=  _\+| (23) TEST, O=example.org, OU=TEST esc {  \xC2\xA3 \xC2\xAC (4) TEST}, CN=c09/emailAddress=me@example.net
        Subject Public Key Info:
            Public Key Algorithm: rsaEncryption
                Public-Key: (2048 bit)
                Modulus:
                    00:ae:8c:09:68:2a:31:93:56:f2:3a:e7:cf:41:46:
                    2b:2c:0d:ed:63:fd:be:b1:e6:78:2d:51:7a:f4:38:
                    07:0b:8d:e1:32:62:3c:b1:25:72:f9:4f:28:fe:06:
                    92:03:96:d4:ee:0c:3e:b1:9b:ef:53:d8:74:d9:40:
                    d9:90:ea:7f:5a:df:fe:e6:64:24:15:a6:fc:69:f0:
                    b4:0b:1b:1f:8f:12:e8:4a:05:22:dc:a1:11:08:6d:
                    12:3d:49:cf:ee:fd:12:60:95:51:5d:0f:47:e0:21:
                    8a:92:84:dc:55:57:f1:c0:e5:ff:06:e9:0e:95:89:
                    df:14:cd:96:35:06:c8:c9:56:60:ff:f0:f2:56:3d:
                    49:04:59:c0:aa:1c:b0:99:a7:7c:6f:0b:bd:bd:8a:
                    5e:d4:66:99:e2:b0:a8:35:a0:ee:db:4d:1e:34:ce:
                    99:74:9c:9d:ce:78:09:6e:b7:81:19:b8:04:b5:89:
                    b3:e7:26:df:74:54:03:89:9c:b5:b5:89:10:d5:77:
                    d6:f5:06:f4:76:00:d9:8b:1e:a9:5a:cc:d1:45:19:
                    2a:6f:ae:a4:ef:f8:fc:e2:35:df:8a:77:8f:c5:99:
                    7a:14:cf:76:41:82:3a:d7:6f:18:cc:f6:55:9c:3f:
                    a2:60:a8:ef:1e:b4:67:66:0b:c2:58:0f:01:ef:1e:
                    ab:47
                Exponent: 65537 (0x10001)
        X509v3 extensions:
            X509v3 Basic Constraints: 
                CA:FALSE
            X509v3 Subject Key Identifier: 
                D6:D8:F3:44:F8:1C:A8:89:89:7E:0E:37:E4:B4:8D:8F:CB:7A:ED:97
            X509v3 Authority Key Identifier: 
                keyid:D3:E2:63:C9:00:7D:15:32:1B:7D:2F:91:28:AA:59:B5:6B:F3:45:2D
                DirName:/C=00/ST=test/L=TEST ,.\/<>  ?;:@~  []!%^  *()-=  _\+| (23) TEST/O=example.org/OU=TEST esc {  \xC2\xA3 \xC2\xAC (4) TEST}/CN=easytls-unit-test/emailAddress=me@example.net
                serial:67:B7:C3:20:42:99:88:4F:0A:3E:02:D1:91:C4:B0:1F:C2:AD:1D:6A
            X509v3 Extended Key Usage: 
                TLS Web Client Authentication
            X509v3 Key Usage: 
                Digital Signature
    Signature Algorithm: sha256WithRSAEncryption
    Signature Value:
        6b:09:d8:1d:8c:18:d0:9d:69:bd:53:26:b3:eb:f6:4b:fa:69:
        a5:0a:3e:b9:b3:6c:27:68:e2:eb:47:c5:b8:e2:71:9a:95:ef:
        21:6b:a5:95:f3:eb:ea:3b:ca:52:1b:38:9f:57:c9:f0:e7:5d:
        00:fb:1e:68:61:d5:af:36:cc:36:d0:1a:b5:89:ca:6f:22:76:
        af:98:28:57:a0:0f:ad:0e:6f:1e:3f:16:22:63:7f:2f:61:fe:
        8e:b0:da:cb:da:a3:dd:04:d6:38:96:72:ef:2b:86:b2:66:9c:
        6b:bc:cc:4e:a1:30:35:83:3c:78:e1:9f:c1:94:d6:1e:83:0d:
        6d:d8:ad:29:ca:9c:11:9b:41:0d:b0:79:9c:d0:29:db:bd:d0:
        cc:c3:34:74:bd:ac:17:37:41:96:a5:a6:e4:c5:ab:e9:9a:84:
        12:70:47:2b:84:37:d5:56:6f:fd:3b:06:72:32:61:69:58:b6:
        23:a9:10:80:07:dd:ae:0f:de:ad:36:e9:55:6d:53:bd:8e:77:
        b0:a3:89:d4:dd:68:eb:66:1a:8b:cf:7e:3a:cf:a5:fc:c1:3f:
        36:2b:4a:c5:54:bd:23:96:42:b1:79:67:c2:03:0e:29:ac:e4:
        d1:5a:b6:82:0b:2f:3a:53:f6:82:8b:6c:e0:9e:66:7d:46:b1:
        1c:6f:72:94
-----BEGIN CERTIFICATE-----
MIIFazCCBFOgAwIBAgIBDjANBgkqhkiG9w0BAQsFADCBzDELMAkGA1UEBhMCMDAx
DTALBgNVBAgMBHRlc3QxNzA1BgNVBAcMLlRFU1QgLC4vPD4gID87OkB+ICBbXSEl
XiAgKigpLT0gIF8rfCAoMjMpIFRFU1QxFDASBgNVBAoMC2V4YW1wbGUub3JnMSQw
IgYDVQQLDBtURVNUIGVzYyB7ICDCoyDCrCAoNCkgVEVTVH0xGjAYBgNVBAMMEWVh
c3l0bHMtdW5pdC10ZXN0MR0wGwYJKoZIhvcNAQkBFg5tZUBleGFtcGxlLm5ldDAe
Fw0yMjAyMjUyMzQwMzFaFw0yNDA1MzAyMzQwMzFaMIG+MQswCQYDVQQGEwIwMDEN
MAsGA1UECAwEdGVzdDE3MDUGA1UEBwwuVEVTVCAsLi88PiAgPzs6QH4gIFtdISVe
ICAqKCktPSAgXyt8ICgyMykgVEVTVDEUMBIGA1UECgwLZXhhbXBsZS5vcmcxJDAi
BgNVBAsMG1RFU1QgZXNjIHsgIMKjIMKsICg0KSBURVNUfTEMMAoGA1UEAwwDYzA5
MR0wGwYJKoZIhvcNAQkBFg5tZUBleGFtcGxlLm5ldDCCASIwDQYJKoZIhvcNAQEB
BQADggEPADCCAQoCggEBAK6MCWgqMZNW8jrnz0FGKywN7WP9vrHmeC1RevQ4BwuN
4TJiPLElcvlPKP4GkgOW1O4MPrGb71PYdNlA2ZDqf1rf/uZkJBWm/GnwtAsbH48S
6EoFItyhEQhtEj1Jz+79EmCVUV0PR+AhipKE3FVX8cDl/wbpDpWJ3xTNljUGyMlW
YP/w8lY9SQRZwKocsJmnfG8Lvb2KXtRmmeKwqDWg7ttNHjTOmXScnc54CW63gRm4
BLWJs+cm33RUA4mctbWJENV31vUG9HYA2YseqVrM0UUZKm+upO/4/OI134p3j8WZ
ehTPdkGCOtdvGMz2VZw/omCo7x60Z2YLwlgPAe8eq0cCAwEAAaOCAWIwggFeMAkG
A1UdEwQCMAAwHQYDVR0OBBYEFNbY80T4HKiJiX4ON+S0jY/Leu2XMIIBDgYDVR0j
BIIBBTCCAQGAFNPiY8kAfRUyG30vkSiqWbVr80UtoYHSpIHPMIHMMQswCQYDVQQG
EwIwMDENMAsGA1UECAwEdGVzdDE3MDUGA1UEBwwuVEVTVCAsLi88PiAgPzs6QH4g
IFtdISVeICAqKCktPSAgXyt8ICgyMykgVEVTVDEUMBIGA1UECgwLZXhhbXBsZS5v
cmcxJDAiBgNVBAsMG1RFU1QgZXNjIHsgIMKjIMKsICg0KSBURVNUfTEaMBgGA1UE
AwwRZWFzeXRscy11bml0LXRlc3QxHTAbBgkqhkiG9w0BCQEWDm1lQGV4YW1wbGUu
bmV0ghRnt8MgQpmITwo+AtGRxLAfwq0dajATBgNVHSUEDDAKBggrBgEFBQcDAjAL
BgNVHQ8EBAMCB4AwDQYJKoZIhvcNAQELBQADggEBAGsJ2B2MGNCdab1TJrPr9kv6
aaUKPrmzbCdo4utHxbjicZqV7yFrpZXz6+o7ylIbOJ9XyfDnXQD7Hmhh1a82zDbQ
GrWJym8idq+YKFegD60Obx4/FiJjfy9h/o6w2svao90E1jiWcu8rhrJmnGu8zE6h
MDWDPHjhn8GU1h6DDW3YrSnKnBGbQQ2weZzQKdu90MzDNHS9rBc3QZalpuTFq+ma
hBJwRyuEN9VWb/07BnIyYWlYtiOpEIAH3a4P3q026VVtU72Od7CjidTdaOtmGovP
fjrPpfzBPzYrSsVUvSOWQrF5Z8IDDims5NFatoILLzpT9oKLbOCeZn1GsRxvcpQ=
-----END CERTIFICATE-----
