Certificate:
    Data:
        Version: 3 (0x2)
        Serial Number: 15 (0xf)
        Signature Algorithm: sha256WithRSAEncryption
        Issuer: C=00, ST=test, L=TEST ,.\/<>  ?;:@~  []!%^  *()-=  _\+| (23) TEST, O=example.org, OU=TEST esc {  \xC2\xA3 \xC2\xAC (4) TEST}, CN=easytls-unit-test/emailAddress=me@example.net
        Validity
            Not Before: Feb 25 23:40:31 2022 GMT
            Not After : May 30 23:40:31 2024 GMT
        Subject: C=00, ST=test, L=TEST ,.\/<>  ?;:@~  []!%^  *()-=  _\+| (23) TEST, O=example.org, OU=TEST esc {  \xC2\xA3 \xC2\xAC (4) TEST}, CN=c10/emailAddress=me@example.net
        Subject Public Key Info:
            Public Key Algorithm: rsaEncryption
                Public-Key: (2048 bit)
                Modulus:
                    00:b1:25:c3:eb:9a:83:de:d2:f0:04:78:4a:16:3d:
                    4e:6e:cd:66:a1:6c:d6:8d:cb:e1:c4:33:72:d6:87:
                    5a:6b:05:de:37:e5:fd:7b:c2:8c:5c:d9:b2:e7:04:
                    c9:aa:fb:3d:da:7b:67:cb:08:9b:64:26:0a:e5:83:
                    bc:1e:28:88:76:53:41:03:b4:23:38:9c:33:5f:25:
                    b5:51:f0:50:7f:36:fd:14:24:ea:22:03:e1:e1:c7:
                    21:d0:b2:9e:c4:a4:0d:8a:cf:98:10:59:b7:69:2f:
                    8f:d9:ca:8f:45:ba:b3:f9:79:be:ca:27:ce:89:2f:
                    88:e8:e5:d4:c0:71:ab:7d:53:24:e7:eb:8a:ab:c5:
                    d7:82:3f:ec:90:69:13:3a:06:71:aa:cb:ab:06:d1:
                    54:b8:be:e3:1b:aa:d6:12:a9:9b:f6:b3:d8:53:0c:
                    85:59:30:ab:f9:64:60:79:34:ee:53:58:d0:6a:2d:
                    ff:86:5e:b0:1a:2c:3a:6c:1a:ba:dc:50:f2:ce:c3:
                    9b:71:c6:71:8b:75:79:1d:b6:42:13:d1:a3:bb:6f:
                    dd:69:3d:ee:67:08:74:f0:7f:79:92:f4:16:99:43:
                    ad:d4:7b:2b:ca:65:2a:f2:26:43:12:1e:40:39:ad:
                    f5:45:93:58:3e:72:4f:4e:a3:60:1e:5b:d7:0b:08:
                    c0:4d
                Exponent: 65537 (0x10001)
        X509v3 extensions:
            X509v3 Basic Constraints: 
                CA:FALSE
            X509v3 Subject Key Identifier: 
                EE:90:0A:94:51:C1:6D:C2:A6:C5:19:03:B4:87:C1:34:E8:A9:07:33
            X509v3 Authority Key Identifier: 
                keyid:D3:E2:63:C9:00:7D:15:32:1B:7D:2F:91:28:AA:59:B5:6B:F3:45:2D
                DirName:/C=00/ST=test/L=TEST ,.\/<>  ?;:@~  []!%^  *()-=  _\+| (23) TEST/O=example.org/OU=TEST esc {  \xC2\xA3 \xC2\xAC (4) TEST}/CN=easytls-unit-test/emailAddress=me@example.net
                serial:67:B7:C3:20:42:99:88:4F:0A:3E:02:D1:91:C4:B0:1F:C2:AD:1D:6A
            X509v3 Extended Key Usage: 
                TLS Web Client Authentication
            X509v3 Key Usage: 
                Digital Signature
    Signature Algorithm: sha256WithRSAEncryption
    Signature Value:
        62:9e:67:92:9a:46:4b:15:5a:4c:aa:a2:ae:4b:87:14:6a:1e:
        8c:24:5d:16:82:21:48:08:df:ed:56:df:2d:30:5e:46:60:0f:
        00:77:9c:19:5e:5e:70:26:75:2c:fa:09:4a:2e:27:1c:f4:5c:
        44:fb:62:56:b3:96:05:8c:f9:01:0c:b5:20:91:45:a2:ba:3f:
        c0:69:3c:be:7a:f1:2c:80:17:81:52:8d:b4:3f:c5:5c:eb:57:
        50:c1:46:64:64:a1:41:81:b2:7f:72:70:f3:d5:e2:8d:d4:12:
        1f:49:f2:49:1c:c7:64:38:67:30:eb:81:aa:ba:f2:92:ad:f2:
        0b:42:a6:85:08:2f:6d:33:c0:2c:52:6c:f9:68:a7:49:cd:8d:
        73:c4:5b:90:2b:d4:d3:a2:4e:bb:08:66:43:9b:6d:f3:79:d3:
        9b:6c:5e:6c:9a:05:79:4a:87:36:ce:11:35:8e:43:2f:2a:39:
        a9:92:89:3f:1a:c2:8b:b9:85:b8:c5:25:2e:b4:1d:a3:49:f9:
        7d:f7:3f:20:d5:ff:32:ad:9b:f4:bb:b4:62:10:b1:35:16:76:
        c7:58:40:47:ce:de:7e:97:24:7f:f2:62:9b:c0:47:12:29:c9:
        88:62:ca:24:3b:a1:bb:77:c3:ea:93:f9:93:a4:77:d0:c9:d1:
        bd:2e:6d:4f
-----BEGIN CERTIFICATE-----
MIIFazCCBFOgAwIBAgIBDzANBgkqhkiG9w0BAQsFADCBzDELMAkGA1UEBhMCMDAx
DTALBgNVBAgMBHRlc3QxNzA1BgNVBAcMLlRFU1QgLC4vPD4gID87OkB+ICBbXSEl
XiAgKigpLT0gIF8rfCAoMjMpIFRFU1QxFDASBgNVBAoMC2V4YW1wbGUub3JnMSQw
IgYDVQQLDBtURVNUIGVzYyB7ICDCoyDCrCAoNCkgVEVTVH0xGjAYBgNVBAMMEWVh
c3l0bHMtdW5pdC10ZXN0MR0wGwYJKoZIhvcNAQkBFg5tZUBleGFtcGxlLm5ldDAe
Fw0yMjAyMjUyMzQwMzFaFw0yNDA1MzAyMzQwMzFaMIG+MQswCQYDVQQGEwIwMDEN
MAsGA1UECAwEdGVzdDE3MDUGA1UEBwwuVEVTVCAsLi88PiAgPzs6QH4gIFtdISVe
ICAqKCktPSAgXyt8ICgyMykgVEVTVDEUMBIGA1UECgwLZXhhbXBsZS5vcmcxJDAi
BgNVBAsMG1RFU1QgZXNjIHsgIMKjIMKsICg0KSBURVNUfTEMMAoGA1UEAwwDYzEw
MR0wGwYJKoZIhvcNAQkBFg5tZUBleGFtcGxlLm5ldDCCASIwDQYJKoZIhvcNAQEB
BQADggEPADCCAQoCggEBALElw+uag97S8AR4ShY9Tm7NZqFs1o3L4cQzctaHWmsF
3jfl/XvCjFzZsucEyar7Pdp7Z8sIm2QmCuWDvB4oiHZTQQO0IzicM18ltVHwUH82
/RQk6iID4eHHIdCynsSkDYrPmBBZt2kvj9nKj0W6s/l5vsonzokviOjl1MBxq31T
JOfriqvF14I/7JBpEzoGcarLqwbRVLi+4xuq1hKpm/az2FMMhVkwq/lkYHk07lNY
0Got/4ZesBosOmwautxQ8s7Dm3HGcYt1eR22QhPRo7tv3Wk97mcIdPB/eZL0FplD
rdR7K8plKvImQxIeQDmt9UWTWD5yT06jYB5b1wsIwE0CAwEAAaOCAWIwggFeMAkG
A1UdEwQCMAAwHQYDVR0OBBYEFO6QCpRRwW3CpsUZA7SHwTToqQczMIIBDgYDVR0j
BIIBBTCCAQGAFNPiY8kAfRUyG30vkSiqWbVr80UtoYHSpIHPMIHMMQswCQYDVQQG
EwIwMDENMAsGA1UECAwEdGVzdDE3MDUGA1UEBwwuVEVTVCAsLi88PiAgPzs6QH4g
IFtdISVeICAqKCktPSAgXyt8ICgyMykgVEVTVDEUMBIGA1UECgwLZXhhbXBsZS5v
cmcxJDAiBgNVBAsMG1RFU1QgZXNjIHsgIMKjIMKsICg0KSBURVNUfTEaMBgGA1UE
AwwRZWFzeXRscy11bml0LXRlc3QxHTAbBgkqhkiG9w0BCQEWDm1lQGV4YW1wbGUu
bmV0ghRnt8MgQpmITwo+AtGRxLAfwq0dajATBgNVHSUEDDAKBggrBgEFBQcDAjAL
BgNVHQ8EBAMCB4AwDQYJKoZIhvcNAQELBQADggEBAGKeZ5KaRksVWkyqoq5LhxRq
HowkXRaCIUgI3+1W3y0wXkZgDwB3nBleXnAmdSz6CUouJxz0XET7YlazlgWM+QEM
tSCRRaK6P8BpPL568SyAF4FSjbQ/xVzrV1DBRmRkoUGBsn9ycPPV4o3UEh9J8kkc
x2Q4ZzDrgaq68pKt8gtCpoUIL20zwCxSbPlop0nNjXPEW5Ar1NOiTrsIZkObbfN5
05tsXmyaBXlKhzbOETWOQy8qOamSiT8awou5hbjFJS60HaNJ+X33PyDV/zKtm/S7
tGIQsTUWdsdYQEfO3n6XJH/yYpvARxIpyYhiyiQ7obt3w+qT+ZOkd9DJ0b0ubU8=
-----END CERTIFICATE-----
