Certificate:
    Data:
        Version: 3 (0x2)
        Serial Number: 16 (0x10)
        Signature Algorithm: sha256WithRSAEncryption
        Issuer: C=00, ST=test, L=TEST ,.\/<>  ?;:@~  []!%^  *()-=  _\+| (23) TEST, O=example.org, OU=TEST esc {  \xC2\xA3 \xC2\xAC (4) TEST}, CN=easytls-unit-test/emailAddress=me@example.net
        Validity
            Not Before: Feb 25 23:40:32 2022 GMT
            Not After : May 30 23:40:32 2024 GMT
        Subject: C=00, ST=test, L=TEST ,.\/<>  ?;:@~  []!%^  *()-=  _\+| (23) TEST, O=example.org, OU=TEST esc {  \xC2\xA3 \xC2\xAC (4) TEST}, CN=cw01/emailAddress=me@example.net
        Subject Public Key Info:
            Public Key Algorithm: rsaEncryption
                Public-Key: (2048 bit)
                Modulus:
                    00:c5:d0:ce:90:71:e1:ac:89:bd:6f:a1:20:fa:27:
                    b8:54:88:32:47:49:e6:ea:0e:c3:95:bb:45:25:68:
                    5e:a9:1f:74:55:d6:f5:80:30:a3:c4:e6:de:e5:f1:
                    5b:4a:0c:8a:16:db:7a:96:af:a4:9b:46:a8:d0:d4:
                    94:69:02:41:43:55:cd:ea:31:be:47:fc:54:13:f7:
                    a7:36:00:b2:b8:01:67:a6:8a:0e:02:da:e8:75:12:
                    d2:f3:d8:78:3d:7d:7b:19:5a:26:ac:fe:dc:31:6e:
                    b0:23:ba:14:10:06:28:4c:44:1f:b8:da:9a:12:87:
                    9e:ac:2a:a8:40:c6:0f:48:99:e1:71:c2:97:15:aa:
                    5a:79:20:7b:61:aa:00:f3:61:2e:d3:55:4e:82:e4:
                    f4:7b:88:77:0c:6b:53:87:58:7c:d9:cc:eb:db:f3:
                    8a:93:52:8a:ce:cb:5c:da:77:90:5f:68:3c:c7:86:
                    48:0e:57:c5:b6:d2:e8:77:46:80:da:8d:3f:e5:7a:
                    5d:9d:18:56:fc:dc:af:c6:67:75:25:b3:0c:54:c4:
                    75:52:db:f8:9b:d7:bc:3f:44:d1:a9:d5:ae:d0:90:
                    02:17:ba:dc:e8:25:e3:77:5b:5f:6a:84:4d:3a:fb:
                    31:cd:f3:7c:ce:e7:17:b8:e8:7d:fb:d5:81:b1:9f:
                    f2:c7
                Exponent: 65537 (0x10001)
        X509v3 extensions:
            X509v3 Basic Constraints: 
                CA:FALSE
            X509v3 Subject Key Identifier: 
                0F:4C:3A:0D:D7:ED:BE:A9:C4:87:E6:5D:51:A2:17:BA:CB:FE:47:5E
            X509v3 Authority Key Identifier: 
                keyid:D3:E2:63:C9:00:7D:15:32:1B:7D:2F:91:28:AA:59:B5:6B:F3:45:2D
                DirName:/C=00/ST=test/L=TEST ,.\/<>  ?;:@~  []!%^  *()-=  _\+| (23) TEST/O=example.org/OU=TEST esc {  \xC2\xA3 \xC2\xAC (4) TEST}/CN=easytls-unit-test/emailAddress=me@example.net
                serial:67:B7:C3:20:42:99:88:4F:0A:3E:02:D1:91:C4:B0:1F:C2:AD:1D:6A
            X509v3 Extended Key Usage: 
                TLS Web Client Authentication
            X509v3 Key Usage: 
                Digital Signature
    Signature Algorithm: sha256WithRSAEncryption
    Signature Value:
        47:4b:85:31:92:62:b2:f5:61:cf:21:41:15:3e:9c:3c:ca:05:
        71:d8:60:ae:57:59:fe:40:31:fd:d2:89:95:d0:0d:96:29:9e:
        8e:b3:0c:8d:2d:a5:01:e6:f2:63:fd:57:79:78:67:c7:6d:44:
        5d:bd:92:44:bb:e1:7b:a2:d2:fe:4b:2c:ec:03:4c:24:9e:70:
        4c:88:07:8e:ec:d5:20:e7:62:d1:73:3d:30:94:38:0d:5e:6d:
        d7:90:5b:89:e8:ae:45:91:16:f4:1d:a5:df:b1:22:05:72:29:
        29:b7:4f:6e:7a:73:33:ee:cc:93:64:80:ee:21:10:32:9b:5a:
        6b:52:aa:6d:4f:17:3f:97:b8:0a:a4:95:b2:c5:42:47:0e:07:
        2c:66:cb:57:c2:c0:96:87:da:36:ef:36:25:e7:dd:e5:f8:a4:
        f9:4f:71:c3:01:b9:db:14:b7:16:34:af:41:ee:c1:35:a8:5b:
        3b:1b:b4:e7:1f:74:68:c5:6e:c3:77:1e:30:f7:ec:54:9f:15:
        6b:95:d9:16:f0:32:98:df:d9:a4:b5:12:31:3e:70:cb:41:21:
        62:97:a1:54:19:d5:28:31:41:9d:e4:7d:47:11:57:a9:2d:1e:
        39:33:9f:f7:9f:fe:1a:d9:20:54:58:d1:69:31:6c:86:9e:24:
        ac:54:85:18
-----BEGIN CERTIFICATE-----
MIIFbDCCBFSgAwIBAgIBEDANBgkqhkiG9w0BAQsFADCBzDELMAkGA1UEBhMCMDAx
DTALBgNVBAgMBHRlc3QxNzA1BgNVBAcMLlRFU1QgLC4vPD4gID87OkB+ICBbXSEl
XiAgKigpLT0gIF8rfCAoMjMpIFRFU1QxFDASBgNVBAoMC2V4YW1wbGUub3JnMSQw
IgYDVQQLDBtURVNUIGVzYyB7ICDCoyDCrCAoNCkgVEVTVH0xGjAYBgNVBAMMEWVh
c3l0bHMtdW5pdC10ZXN0MR0wGwYJKoZIhvcNAQkBFg5tZUBleGFtcGxlLm5ldDAe
Fw0yMjAyMjUyMzQwMzJaFw0yNDA1MzAyMzQwMzJaMIG/MQswCQYDVQQGEwIwMDEN
MAsGA1UECAwEdGVzdDE3MDUGA1UEBwwuVEVTVCAsLi88PiAgPzs6QH4gIFtdISVe
ICAqKCktPSAgXyt8ICgyMykgVEVTVDEUMBIGA1UECgwLZXhhbXBsZS5vcmcxJDAi
BgNVBAsMG1RFU1QgZXNjIHsgIMKjIMKsICg0KSBURVNUfTENMAsGA1UEAwwEY3cw
MTEdMBsGCSqGSIb3DQEJARYObWVAZXhhbXBsZS5uZXQwggEiMA0GCSqGSIb3DQEB
AQUAA4IBDwAwggEKAoIBAQDF0M6QceGsib1voSD6J7hUiDJHSebqDsOVu0UlaF6p
H3RV1vWAMKPE5t7l8VtKDIoW23qWr6SbRqjQ1JRpAkFDVc3qMb5H/FQT96c2ALK4
AWemig4C2uh1EtLz2Hg9fXsZWias/twxbrAjuhQQBihMRB+42poSh56sKqhAxg9I
meFxwpcVqlp5IHthqgDzYS7TVU6C5PR7iHcMa1OHWHzZzOvb84qTUorOy1zad5Bf
aDzHhkgOV8W20uh3RoDajT/lel2dGFb83K/GZ3UlswxUxHVS2/ib17w/RNGp1a7Q
kAIXutzoJeN3W19qhE06+zHN83zO5xe46H371YGxn/LHAgMBAAGjggFiMIIBXjAJ
BgNVHRMEAjAAMB0GA1UdDgQWBBQPTDoN1+2+qcSH5l1Rohe6y/5HXjCCAQ4GA1Ud
IwSCAQUwggEBgBTT4mPJAH0VMht9L5Eoqlm1a/NFLaGB0qSBzzCBzDELMAkGA1UE
BhMCMDAxDTALBgNVBAgMBHRlc3QxNzA1BgNVBAcMLlRFU1QgLC4vPD4gID87OkB+
ICBbXSElXiAgKigpLT0gIF8rfCAoMjMpIFRFU1QxFDASBgNVBAoMC2V4YW1wbGUu
b3JnMSQwIgYDVQQLDBtURVNUIGVzYyB7ICDCoyDCrCAoNCkgVEVTVH0xGjAYBgNV
BAMMEWVhc3l0bHMtdW5pdC10ZXN0MR0wGwYJKoZIhvcNAQkBFg5tZUBleGFtcGxl
Lm5ldIIUZ7fDIEKZiE8KPgLRkcSwH8KtHWowEwYDVR0lBAwwCgYIKwYBBQUHAwIw
CwYDVR0PBAQDAgeAMA0GCSqGSIb3DQEBCwUAA4IBAQBHS4UxkmKy9WHPIUEVPpw8
ygVx2GCuV1n+QDH90omV0A2WKZ6OswyNLaUB5vJj/Vd5eGfHbURdvZJEu+F7otL+
SyzsA0wknnBMiAeO7NUg52LRcz0wlDgNXm3XkFuJ6K5FkRb0HaXfsSIFcikpt09u
enMz7syTZIDuIRAym1prUqptTxc/l7gKpJWyxUJHDgcsZstXwsCWh9o27zYl593l
+KT5T3HDAbnbFLcWNK9B7sE1qFs7G7TnH3RoxW7Ddx4w9+xUnxVrldkW8DKY39mk
tRIxPnDLQSFil6FUGdUoMUGd5H1HEVepLR45M5/3n/4a2SBUWNFpMWyGniSsVIUY
-----END CERTIFICATE-----
