Certificate:
    Data:
        Version: 3 (0x2)
        Serial Number:
            03:0a:2a:05:77:72:69:66:5a:0c:f1:c9:ce:bb:a8:51
        Signature Algorithm: sha256WithRSAEncryption
        Issuer: CN=easytls-unit-test
        Validity
            Not Before: Feb 26 00:19:09 2022 GMT
            Not After : May 31 00:19:09 2024 GMT
        Subject: CN=c08
        Subject Public Key Info:
            Public Key Algorithm: rsaEncryption
                Public-Key: (2048 bit)
                Modulus:
                    00:f3:75:a2:25:cd:58:18:ad:06:08:ea:58:ec:83:
                    4a:b7:e8:69:9e:93:01:d0:1b:f7:c8:b2:27:8b:be:
                    f0:f0:d1:37:95:5e:bc:90:3b:2f:17:f9:82:10:d4:
                    7c:8a:13:af:df:7b:11:e7:66:99:19:62:10:8f:dc:
                    61:c6:6e:79:1e:78:db:08:18:f0:ec:df:8e:dc:cf:
                    4e:33:19:08:2c:d2:11:52:b5:6b:70:bd:38:84:1b:
                    8b:f6:b3:14:b8:56:55:d4:95:88:ba:82:c5:fc:e2:
                    1f:ad:b1:45:d0:94:e3:82:5d:60:d7:fd:2e:d0:25:
                    c2:68:1f:e5:31:cb:a7:67:28:af:45:eb:77:2b:a6:
                    e5:ff:f1:a4:7b:df:ad:e5:50:95:80:8e:62:8d:ea:
                    9b:23:b5:1f:a8:57:6e:50:24:d7:c6:20:5f:94:fc:
                    c8:9e:d8:58:c4:d7:f1:c2:8e:3b:93:eb:3f:3d:d5:
                    8a:28:c7:58:d7:cf:43:7d:cb:1e:8e:25:e9:e6:0c:
                    d0:6f:ea:f2:d5:5c:6e:31:ef:73:f3:e8:a4:7a:fe:
                    a0:e2:14:2c:aa:3a:63:c4:ab:5f:28:80:88:48:5e:
                    60:be:52:f0:31:cf:6c:14:a6:6d:bc:96:57:ba:81:
                    1a:04:0d:71:a1:67:93:ef:a4:81:d2:c6:14:e4:c4:
                    34:9d
                Exponent: 65537 (0x10001)
        X509v3 extensions:
            X509v3 Basic Constraints: 
                CA:FALSE
            X509v3 Subject Key Identifier: 
                B1:F9:9B:71:07:5F:07:FE:A7:C0:E2:75:0F:B8:E1:19:04:6E:DF:6D
            X509v3 Authority Key Identifier: 
                keyid:7F:DB:A7:04:5F:A0:23:1F:C0:6E:CD:55:F0:15:C6:27:55:BC:80:B8
                DirName:/CN=easytls-unit-test
                serial:25:21:EE:52:13:98:94:DC:17:DA:54:03:39:A8:CB:E2:42:92:23:4D
            X509v3 Extended Key Usage: 
                TLS Web Client Authentication
            X509v3 Key Usage: 
                Digital Signature
    Signature Algorithm: sha256WithRSAEncryption
    Signature Value:
        7d:27:15:07:02:fe:41:9f:02:9a:db:b9:09:2d:44:8a:d7:1a:
        f9:6d:06:d9:53:db:a9:70:87:b1:58:e6:b1:b0:7f:3a:0e:fb:
        dc:fe:7a:c8:37:60:db:8b:56:51:45:f2:6f:6f:6c:c1:2c:50:
        98:61:96:0d:79:05:74:55:7b:17:ca:13:d3:26:16:32:fd:3e:
        55:ac:6f:34:9a:9f:86:56:87:be:ac:be:19:30:be:2c:22:86:
        ae:c4:a2:70:ea:e0:c2:51:2a:b1:84:11:e2:ac:d1:04:fe:0a:
        cf:54:c7:b6:86:00:09:c9:c7:2b:93:70:d8:e7:ba:01:71:be:
        3d:ca:05:37:a0:45:06:c9:66:c5:e6:37:fa:bd:e0:c9:eb:cf:
        08:86:f6:e9:96:71:29:30:dd:5b:8b:7a:3f:db:a1:a6:c8:20:
        60:9d:fc:13:b2:b8:7e:b6:d7:e0:35:a0:c1:9c:06:a4:6d:9b:
        fa:69:55:57:46:d6:a5:6b:d6:a1:54:0c:7f:d0:43:f0:4e:cf:
        ee:55:6d:a1:38:bb:d0:2b:7d:0d:42:07:8e:42:27:5d:09:58:
        bd:1b:85:c6:74:a4:ec:3c:6c:60:8c:90:ee:81:78:9c:66:cb:
        1c:37:2c:5f:db:b0:a4:16:e4:58:8f:bb:ec:65:23:ac:d2:fc:
        41:f2:18:91
-----BEGIN CERTIFICATE-----
MIIDXTCCAkWgAwIBAgIQAwoqBXdyaWZaDPHJzruoUTANBgkqhkiG9w0BAQsFADAc
MRowGAYDVQQDDBFlYXN5dGxzLXVuaXQtdGVzdDAeFw0yMjAyMjYwMDE5MDlaFw0y
NDA1MzEwMDE5MDlaMA4xDDAKBgNVBAMMA2MwODCCASIwDQYJKoZIhvcNAQEBBQAD
ggEPADCCAQoCggEBAPN1oiXNWBitBgjqWOyDSrfoaZ6TAdAb98iyJ4u+8PDRN5Ve
vJA7Lxf5ghDUfIoTr997EedmmRliEI/cYcZueR542wgY8OzfjtzPTjMZCCzSEVK1
a3C9OIQbi/azFLhWVdSViLqCxfziH62xRdCU44JdYNf9LtAlwmgf5THLp2cor0Xr
dyum5f/xpHvfreVQlYCOYo3qmyO1H6hXblAk18YgX5T8yJ7YWMTX8cKOO5PrPz3V
iijHWNfPQ33LHo4l6eYM0G/q8tVcbjHvc/PopHr+oOIULKo6Y8SrXyiAiEheYL5S
8DHPbBSmbbyWV7qBGgQNcaFnk++kgdLGFOTENJ0CAwEAAaOBqDCBpTAJBgNVHRME
AjAAMB0GA1UdDgQWBBSx+ZtxB18H/qfA4nUPuOEZBG7fbTBXBgNVHSMEUDBOgBR/
26cEX6AjH8BuzVXwFcYnVbyAuKEgpB4wHDEaMBgGA1UEAwwRZWFzeXRscy11bml0
LXRlc3SCFCUh7lITmJTcF9pUAzmoy+JCkiNNMBMGA1UdJQQMMAoGCCsGAQUFBwMC
MAsGA1UdDwQEAwIHgDANBgkqhkiG9w0BAQsFAAOCAQEAfScVBwL+QZ8Cmtu5CS1E
itca+W0G2VPbqXCHsVjmsbB/Og773P56yDdg24tWUUXyb29swSxQmGGWDXkFdFV7
F8oT0yYWMv0+VaxvNJqfhlaHvqy+GTC+LCKGrsSicOrgwlEqsYQR4qzRBP4Kz1TH
toYACcnHK5Nw2Oe6AXG+PcoFN6BFBslmxeY3+r3gyevPCIb26ZZxKTDdW4t6P9uh
psggYJ38E7K4frbX4DWgwZwGpG2b+mlVV0bWpWvWoVQMf9BD8E7P7lVtoTi70Ct9
DUIHjkInXQlYvRuFxnSk7DxsYIyQ7oF4nGbLHDcsX9uwpBbkWI+77GUjrNL8QfIY
kQ==
-----END CERTIFICATE-----
