Certificate:
    Data:
        Version: 3 (0x2)
        Serial Number: 5 (0x5)
        Signature Algorithm: sha256WithRSAEncryption
        Issuer: C=00, ST=test, L=TEST ,.\/<>  ?;:@~  []!%^  *()-=  _\+| (23) TEST, O=example.org, OU=TEST esc {  \xC2\xA3 \xC2\xAC (4) TEST}, CN=easytls-unit-test/emailAddress=me@example.net
        Validity
            Not Before: Feb 25 23:40:26 2022 GMT
            Not After : May 30 23:40:26 2024 GMT
        Subject: C=00, ST=test, L=TEST ,.\/<>  ?;:@~  []!%^  *()-=  _\+| (23) TEST, O=example.org, OU=TEST esc {  \xC2\xA3 \xC2\xAC (4) TEST}, CN=c-auth/emailAddress=me@example.net
        Subject Public Key Info:
            Public Key Algorithm: rsaEncryption
                Public-Key: (2048 bit)
                Modulus:
                    00:b0:96:d5:3b:94:f8:27:dd:6a:80:a0:c3:41:22:
                    cb:2e:b0:6f:ff:9f:2d:45:5f:47:72:fc:81:0a:44:
                    99:06:c2:9d:14:70:8a:df:bf:a3:bd:e0:85:cf:bc:
                    d9:fb:c2:5e:40:e2:1e:68:0f:40:9a:02:0b:17:4e:
                    fd:3d:05:bd:cb:23:90:a1:db:8a:5c:66:dc:9a:d9:
                    57:e7:1e:29:77:4d:52:80:96:9b:89:7f:dd:70:60:
                    07:af:ff:9b:f4:2e:72:6a:08:19:55:b7:70:fe:bb:
                    05:a6:db:f1:b4:c1:9f:92:67:18:d9:d8:7a:b6:50:
                    b9:d1:21:23:bd:e3:9a:70:8c:c6:11:39:dc:3f:0d:
                    c0:e3:3f:c7:8f:9a:39:6f:77:69:38:83:52:aa:68:
                    c7:e6:2b:b6:52:45:a4:bb:47:7b:cf:40:c6:37:ba:
                    1b:64:8b:67:33:36:71:6b:42:9f:99:24:74:91:bf:
                    a2:c9:5a:e3:78:fe:09:5e:7b:49:d1:55:77:99:85:
                    e2:d2:98:3e:44:d8:1c:42:92:99:cb:ca:00:a0:9e:
                    15:a9:58:02:23:d2:55:85:b8:46:12:a2:4f:78:5b:
                    d1:a2:9a:87:bb:3a:59:35:98:fc:a9:17:e0:7b:6a:
                    ce:8c:b3:91:5c:4c:fa:e2:1e:ed:e9:bc:5c:f5:b7:
                    42:c7
                Exponent: 65537 (0x10001)
        X509v3 extensions:
            X509v3 Basic Constraints: 
                CA:FALSE
            X509v3 Subject Key Identifier: 
                6A:36:D2:1D:96:63:BD:E6:31:CF:53:ED:37:1F:11:82:5B:B4:2B:21
            X509v3 Authority Key Identifier: 
                keyid:D3:E2:63:C9:00:7D:15:32:1B:7D:2F:91:28:AA:59:B5:6B:F3:45:2D
                DirName:/C=00/ST=test/L=TEST ,.\/<>  ?;:@~  []!%^  *()-=  _\+| (23) TEST/O=example.org/OU=TEST esc {  \xC2\xA3 \xC2\xAC (4) TEST}/CN=easytls-unit-test/emailAddress=me@example.net
                serial:67:B7:C3:20:42:99:88:4F:0A:3E:02:D1:91:C4:B0:1F:C2:AD:1D:6A
            X509v3 Extended Key Usage: 
                TLS Web Client Authentication
            X509v3 Key Usage: 
                Digital Signature
    Signature Algorithm: sha256WithRSAEncryption
    Signature Value:
        36:85:d2:cd:7f:c1:17:af:e6:d9:ee:ec:68:41:a5:8e:dc:e3:
        f9:7b:85:07:63:0b:10:cc:2a:48:d7:7b:bf:4e:23:64:48:c6:
        c5:dc:71:a6:08:18:01:29:b5:22:31:59:f6:cf:67:a4:7e:fa:
        72:92:5e:6d:9c:65:29:01:ce:7f:33:d5:da:a1:40:8d:9d:0a:
        da:f4:77:4f:23:68:18:3e:39:d1:6f:57:f9:89:d3:5d:2b:7b:
        ea:62:21:87:d6:ba:70:0a:02:cd:10:51:dd:a4:1f:f0:ad:a9:
        44:05:4b:72:1a:87:39:6a:8c:31:60:c1:bf:06:b0:90:80:f6:
        b6:0d:51:46:3c:a8:94:d2:69:0b:10:79:7c:07:d6:f6:f8:e8:
        a4:c7:6f:88:cb:d8:22:4b:e4:12:4b:05:8e:81:82:df:aa:34:
        49:b8:f3:e0:3e:de:f8:89:09:a3:a4:5c:fc:cb:e2:b2:ba:10:
        b4:47:66:e2:4d:0b:50:87:cf:60:33:8f:cf:01:bb:4f:08:3b:
        67:9e:36:a7:25:c4:89:00:84:db:87:be:32:2e:00:7c:97:d2:
        b9:55:76:c8:2f:79:28:85:1e:3f:0f:90:67:1e:23:69:ff:17:
        e0:52:43:dc:72:b8:16:6f:32:d4:5c:da:e4:6b:fa:68:d5:fd:
        b0:29:c5:7b
-----BEGIN CERTIFICATE-----
MIIFbjCCBFagAwIBAgIBBTANBgkqhkiG9w0BAQsFADCBzDELMAkGA1UEBhMCMDAx
DTALBgNVBAgMBHRlc3QxNzA1BgNVBAcMLlRFU1QgLC4vPD4gID87OkB+ICBbXSEl
XiAgKigpLT0gIF8rfCAoMjMpIFRFU1QxFDASBgNVBAoMC2V4YW1wbGUub3JnMSQw
IgYDVQQLDBtURVNUIGVzYyB7ICDCoyDCrCAoNCkgVEVTVH0xGjAYBgNVBAMMEWVh
c3l0bHMtdW5pdC10ZXN0MR0wGwYJKoZIhvcNAQkBFg5tZUBleGFtcGxlLm5ldDAe
Fw0yMjAyMjUyMzQwMjZaFw0yNDA1MzAyMzQwMjZaMIHBMQswCQYDVQQGEwIwMDEN
MAsGA1UECAwEdGVzdDE3MDUGA1UEBwwuVEVTVCAsLi88PiAgPzs6QH4gIFtdISVe
ICAqKCktPSAgXyt8ICgyMykgVEVTVDEUMBIGA1UECgwLZXhhbXBsZS5vcmcxJDAi
BgNVBAsMG1RFU1QgZXNjIHsgIMKjIMKsICg0KSBURVNUfTEPMA0GA1UEAwwGYy1h
dXRoMR0wGwYJKoZIhvcNAQkBFg5tZUBleGFtcGxlLm5ldDCCASIwDQYJKoZIhvcN
AQEBBQADggEPADCCAQoCggEBALCW1TuU+CfdaoCgw0Eiyy6wb/+fLUVfR3L8gQpE
mQbCnRRwit+/o73ghc+82fvCXkDiHmgPQJoCCxdO/T0FvcsjkKHbilxm3JrZV+ce
KXdNUoCWm4l/3XBgB6//m/QucmoIGVW3cP67Babb8bTBn5JnGNnYerZQudEhI73j
mnCMxhE53D8NwOM/x4+aOW93aTiDUqpox+YrtlJFpLtHe89Axje6G2SLZzM2cWtC
n5kkdJG/osla43j+CV57SdFVd5mF4tKYPkTYHEKSmcvKAKCeFalYAiPSVYW4RhKi
T3hb0aKah7s6WTWY/KkX4HtqzoyzkVxM+uIe7em8XPW3QscCAwEAAaOCAWIwggFe
MAkGA1UdEwQCMAAwHQYDVR0OBBYEFGo20h2WY73mMc9T7TcfEYJbtCshMIIBDgYD
VR0jBIIBBTCCAQGAFNPiY8kAfRUyG30vkSiqWbVr80UtoYHSpIHPMIHMMQswCQYD
VQQGEwIwMDENMAsGA1UECAwEdGVzdDE3MDUGA1UEBwwuVEVTVCAsLi88PiAgPzs6
QH4gIFtdISVeICAqKCktPSAgXyt8ICgyMykgVEVTVDEUMBIGA1UECgwLZXhhbXBs
ZS5vcmcxJDAiBgNVBAsMG1RFU1QgZXNjIHsgIMKjIMKsICg0KSBURVNUfTEaMBgG
A1UEAwwRZWFzeXRscy11bml0LXRlc3QxHTAbBgkqhkiG9w0BCQEWDm1lQGV4YW1w
bGUubmV0ghRnt8MgQpmITwo+AtGRxLAfwq0dajATBgNVHSUEDDAKBggrBgEFBQcD
AjALBgNVHQ8EBAMCB4AwDQYJKoZIhvcNAQELBQADggEBADaF0s1/wRev5tnu7GhB
pY7c4/l7hQdjCxDMKkjXe79OI2RIxsXccaYIGAEptSIxWfbPZ6R++nKSXm2cZSkB
zn8z1dqhQI2dCtr0d08jaBg+OdFvV/mJ010re+piIYfWunAKAs0QUd2kH/CtqUQF
S3IahzlqjDFgwb8GsJCA9rYNUUY8qJTSaQsQeXwH1vb46KTHb4jL2CJL5BJLBY6B
gt+qNEm48+A+3viJCaOkXPzL4rK6ELRHZuJNC1CHz2Azj88Bu08IO2eeNqclxIkA
hNuHvjIuAHyX0rlVdsgveSiFHj8PkGceI2n/F+BSQ9xyuBZvMtRc2uRr+mjV/bAp
xXs=
-----END CERTIFICATE-----
