Certificate:
    Data:
        Version: 3 (0x2)
        Serial Number: 6 (0x6)
        Signature Algorithm: sha256WithRSAEncryption
        Issuer: C=00, ST=test, L=TEST ,.\/<>  ?;:@~  []!%^  *()-=  _\+| (23) TEST, O=example.org, OU=TEST esc {  \xC2\xA3 \xC2\xAC (4) TEST}, CN=easytls-unit-test/emailAddress=me@example.net
        Validity
            Not Before: Feb 25 23:40:27 2022 GMT
            Not After : May 30 23:40:27 2024 GMT
        Subject: C=00, ST=test, L=TEST ,.\/<>  ?;:@~  []!%^  *()-=  _\+| (23) TEST, O=example.org, OU=TEST esc {  \xC2\xA3 \xC2\xAC (4) TEST}, CN=c-crypt/emailAddress=me@example.net
        Subject Public Key Info:
            Public Key Algorithm: rsaEncryption
                Public-Key: (2048 bit)
                Modulus:
                    00:b7:7a:4e:bb:ee:21:41:cf:9b:14:7d:db:bb:98:
                    df:c8:9e:5a:a6:5f:c2:8d:6a:58:1c:d7:09:bc:08:
                    0b:e8:a5:9d:15:ad:6c:27:b0:1c:d2:5e:fc:b3:6e:
                    27:3d:6f:66:c7:fc:eb:30:f5:74:33:29:49:70:43:
                    67:2b:69:3b:f6:c9:b1:2f:9c:3f:54:01:31:b9:7c:
                    7f:54:4e:e2:87:06:69:3e:16:ca:3c:c8:a6:57:4f:
                    09:77:f0:d4:e8:35:7c:cd:68:eb:b6:35:34:07:73:
                    c2:e4:8d:04:1a:5b:f8:59:09:f7:b4:bf:b7:03:48:
                    f0:ea:34:e9:bc:51:50:53:1f:25:89:15:95:79:23:
                    ce:90:e3:01:6a:78:a8:41:19:f0:e2:3b:6c:b8:ce:
                    43:08:60:37:73:06:ad:1c:e2:04:69:9e:1f:a0:15:
                    60:db:2e:4f:dc:bb:06:bd:0e:96:96:24:b2:8e:3c:
                    12:35:65:25:ed:36:3b:06:23:5e:71:45:e5:0f:02:
                    16:52:95:b1:1a:a0:6f:50:c6:1b:81:35:09:d0:46:
                    fe:0a:73:d5:f6:f3:7e:0b:af:0b:7c:cc:f2:0d:45:
                    0b:69:8d:04:94:d1:b0:3d:35:a3:4d:20:0d:51:df:
                    46:65:0b:f7:9c:45:d9:24:76:f3:26:82:20:64:e3:
                    33:65
                Exponent: 65537 (0x10001)
        X509v3 extensions:
            X509v3 Basic Constraints: 
                CA:FALSE
            X509v3 Subject Key Identifier: 
                69:01:AC:08:24:E2:31:FA:E3:E1:72:5F:C2:4F:31:1C:AC:07:69:94
            X509v3 Authority Key Identifier: 
                keyid:D3:E2:63:C9:00:7D:15:32:1B:7D:2F:91:28:AA:59:B5:6B:F3:45:2D
                DirName:/C=00/ST=test/L=TEST ,.\/<>  ?;:@~  []!%^  *()-=  _\+| (23) TEST/O=example.org/OU=TEST esc {  \xC2\xA3 \xC2\xAC (4) TEST}/CN=easytls-unit-test/emailAddress=me@example.net
                serial:67:B7:C3:20:42:99:88:4F:0A:3E:02:D1:91:C4:B0:1F:C2:AD:1D:6A
            X509v3 Extended Key Usage: 
                TLS Web Client Authentication
            X509v3 Key Usage: 
                Digital Signature
    Signature Algorithm: sha256WithRSAEncryption
    Signature Value:
        42:81:81:62:29:0d:02:db:c4:4e:1a:6b:58:6d:ac:2e:8b:9b:
        50:d0:0a:66:3c:45:05:f9:82:f8:32:fc:df:c3:03:9b:da:28:
        21:f4:53:6d:e3:00:12:9f:b9:7c:8b:72:92:55:5d:9d:8a:92:
        5d:90:5d:56:fc:27:45:d9:6d:d0:7b:2f:18:ae:36:96:3b:13:
        5e:d4:55:8d:cb:89:17:42:8f:f5:c6:ed:f1:d1:32:c2:4d:d2:
        88:28:09:fd:38:f9:48:8f:30:67:04:09:5a:96:57:9f:c5:c3:
        fe:05:32:d2:1c:5a:42:0f:17:47:3e:c3:a7:53:d6:ea:b1:f9:
        a2:4e:f7:fd:8f:c3:cc:af:ae:33:27:ac:ed:bd:16:f8:b3:84:
        39:4c:05:09:b3:3e:92:18:ff:af:f8:08:53:60:0e:11:88:b0:
        e2:94:18:de:fd:af:7a:12:f4:ae:f3:4d:4d:9e:8d:4d:57:8d:
        3b:39:9b:43:73:b0:cf:b8:90:8b:d0:1e:73:24:10:43:70:a5:
        e1:e2:49:90:3a:e8:36:12:43:ef:d0:a4:36:ab:f7:05:4e:e3:
        e0:8e:b7:29:3d:6f:f6:0f:86:8b:3e:7e:0a:a2:1d:51:e0:28:
        e5:4c:18:5a:1f:81:2e:57:9c:3a:75:d5:7d:5d:8a:30:3f:2c:
        44:c3:e9:c2
-----BEGIN CERTIFICATE-----
MIIFbzCCBFegAwIBAgIBBjANBgkqhkiG9w0BAQsFADCBzDELMAkGA1UEBhMCMDAx
DTALBgNVBAgMBHRlc3QxNzA1BgNVBAcMLlRFU1QgLC4vPD4gID87OkB+ICBbXSEl
XiAgKigpLT0gIF8rfCAoMjMpIFRFU1QxFDASBgNVBAoMC2V4YW1wbGUub3JnMSQw
IgYDVQQLDBtURVNUIGVzYyB7ICDCoyDCrCAoNCkgVEVTVH0xGjAYBgNVBAMMEWVh
c3l0bHMtdW5pdC10ZXN0MR0wGwYJKoZIhvcNAQkBFg5tZUBleGFtcGxlLm5ldDAe
Fw0yMjAyMjUyMzQwMjdaFw0yNDA1MzAyMzQwMjdaMIHCMQswCQYDVQQGEwIwMDEN
MAsGA1UECAwEdGVzdDE3MDUGA1UEBwwuVEVTVCAsLi88PiAgPzs6QH4gIFtdISVe
ICAqKCktPSAgXyt8ICgyMykgVEVTVDEUMBIGA1UECgwLZXhhbXBsZS5vcmcxJDAi
BgNVBAsMG1RFU1QgZXNjIHsgIMKjIMKsICg0KSBURVNUfTEQMA4GA1UEAwwHYy1j
cnlwdDEdMBsGCSqGSIb3DQEJARYObWVAZXhhbXBsZS5uZXQwggEiMA0GCSqGSIb3
DQEBAQUAA4IBDwAwggEKAoIBAQC3ek677iFBz5sUfdu7mN/InlqmX8KNalgc1wm8
CAvopZ0VrWwnsBzSXvyzbic9b2bH/Osw9XQzKUlwQ2craTv2ybEvnD9UATG5fH9U
TuKHBmk+Fso8yKZXTwl38NToNXzNaOu2NTQHc8LkjQQaW/hZCfe0v7cDSPDqNOm8
UVBTHyWJFZV5I86Q4wFqeKhBGfDiO2y4zkMIYDdzBq0c4gRpnh+gFWDbLk/cuwa9
DpaWJLKOPBI1ZSXtNjsGI15xReUPAhZSlbEaoG9QxhuBNQnQRv4Kc9X2834Lrwt8
zPINRQtpjQSU0bA9NaNNIA1R30ZlC/ecRdkkdvMmgiBk4zNlAgMBAAGjggFiMIIB
XjAJBgNVHRMEAjAAMB0GA1UdDgQWBBRpAawIJOIx+uPhcl/CTzEcrAdplDCCAQ4G
A1UdIwSCAQUwggEBgBTT4mPJAH0VMht9L5Eoqlm1a/NFLaGB0qSBzzCBzDELMAkG
A1UEBhMCMDAxDTALBgNVBAgMBHRlc3QxNzA1BgNVBAcMLlRFU1QgLC4vPD4gID87
OkB+ICBbXSElXiAgKigpLT0gIF8rfCAoMjMpIFRFU1QxFDASBgNVBAoMC2V4YW1w
bGUub3JnMSQwIgYDVQQLDBtURVNUIGVzYyB7ICDCoyDCrCAoNCkgVEVTVH0xGjAY
BgNVBAMMEWVhc3l0bHMtdW5pdC10ZXN0MR0wGwYJKoZIhvcNAQkBFg5tZUBleGFt
cGxlLm5ldIIUZ7fDIEKZiE8KPgLRkcSwH8KtHWowEwYDVR0lBAwwCgYIKwYBBQUH
AwIwCwYDVR0PBAQDAgeAMA0GCSqGSIb3DQEBCwUAA4IBAQBCgYFiKQ0C28ROGmtY
bawui5tQ0ApmPEUF+YL4MvzfwwOb2igh9FNt4wASn7l8i3KSVV2dipJdkF1W/CdF
2W3Qey8YrjaWOxNe1FWNy4kXQo/1xu3x0TLCTdKIKAn9OPlIjzBnBAlallefxcP+
BTLSHFpCDxdHPsOnU9bqsfmiTvf9j8PMr64zJ6ztvRb4s4Q5TAUJsz6SGP+v+AhT
YA4RiLDilBje/a96EvSu801Nno1NV407OZtDc7DPuJCL0B5zJBBDcKXh4kmQOug2
EkPv0KQ2q/cFTuPgjrcpPW/2D4aLPn4Koh1R4CjlTBhaH4EuV5w6ddV9XYowPyxE
w+nC
-----END CERTIFICATE-----
