Certificate:
    Data:
        Version: 3 (0x2)
        Serial Number: 7 (0x7)
        Signature Algorithm: sha256WithRSAEncryption
        Issuer: C=00, ST=test, L=TEST ,.\/<>  ?;:@~  []!%^  *()-=  _\+| (23) TEST, O=example.org, OU=TEST esc {  \xC2\xA3 \xC2\xAC (4) TEST}, CN=easytls-unit-test/emailAddress=me@example.net
        Validity
            Not Before: Feb 25 23:40:28 2022 GMT
            Not After : May 30 23:40:28 2024 GMT
        Subject: C=00, ST=test, L=TEST ,.\/<>  ?;:@~  []!%^  *()-=  _\+| (23) TEST, O=example.org, OU=TEST esc {  \xC2\xA3 \xC2\xAC (4) TEST}, CN=c01/emailAddress=me@example.net
        Subject Public Key Info:
            Public Key Algorithm: rsaEncryption
                Public-Key: (2048 bit)
                Modulus:
                    00:f2:2a:9a:ae:02:59:e6:f8:56:d0:2c:14:0e:10:
                    65:b9:f1:e6:58:1b:f1:e4:a4:d0:49:1c:2c:48:45:
                    d6:5d:2a:f1:5c:2b:10:83:ee:f0:8b:f5:e6:b4:78:
                    be:90:20:60:12:76:89:8f:1a:11:4c:3c:67:7b:91:
                    2b:4e:8c:4b:0f:10:07:9c:77:0d:46:1e:9b:af:6e:
                    ad:b2:64:f9:95:c2:35:97:f8:b2:bf:bb:cf:1c:a9:
                    cc:be:86:87:fc:e4:b2:14:ad:33:14:ad:37:46:4d:
                    65:c4:99:56:dc:79:8c:02:d7:6f:42:26:36:b3:4b:
                    7a:03:88:b9:c1:3a:3b:c4:9e:de:cc:48:11:3c:7b:
                    93:dd:e4:a0:0a:c4:af:08:c2:4c:24:d8:5a:d0:d9:
                    25:c2:b9:76:0c:67:f6:be:67:f0:30:9f:98:d5:7d:
                    59:8d:e8:8d:b6:e4:2d:ed:89:ec:30:04:45:a6:fd:
                    20:0f:88:81:8e:df:3a:24:26:0d:8e:f4:6f:0f:a1:
                    f3:94:a5:c6:74:ed:b3:57:22:6b:fc:5a:7a:8e:0f:
                    aa:7d:f9:d7:9f:65:a2:a3:88:4f:42:c4:f1:bc:b7:
                    34:7d:f1:b4:01:3b:ad:0d:85:0c:12:02:24:7e:00:
                    dc:90:86:16:fc:8d:42:8c:3a:fc:bf:78:21:73:6b:
                    49:43
                Exponent: 65537 (0x10001)
        X509v3 extensions:
            X509v3 Basic Constraints: 
                CA:FALSE
            X509v3 Subject Key Identifier: 
                2B:9B:B8:83:64:36:83:75:03:9B:B7:F1:94:9D:40:7E:F3:D0:0D:C8
            X509v3 Authority Key Identifier: 
                keyid:D3:E2:63:C9:00:7D:15:32:1B:7D:2F:91:28:AA:59:B5:6B:F3:45:2D
                DirName:/C=00/ST=test/L=TEST ,.\/<>  ?;:@~  []!%^  *()-=  _\+| (23) TEST/O=example.org/OU=TEST esc {  \xC2\xA3 \xC2\xAC (4) TEST}/CN=easytls-unit-test/emailAddress=me@example.net
                serial:67:B7:C3:20:42:99:88:4F:0A:3E:02:D1:91:C4:B0:1F:C2:AD:1D:6A
            X509v3 Extended Key Usage: 
                TLS Web Client Authentication
            X509v3 Key Usage: 
                Digital Signature
    Signature Algorithm: sha256WithRSAEncryption
    Signature Value:
        66:1a:7f:49:fd:a7:51:d9:85:88:36:ab:05:01:80:f7:fc:4a:
        ce:f0:c6:4f:64:38:99:a8:3c:eb:c0:53:a9:31:6f:61:01:e2:
        62:91:4d:28:cd:f5:8c:e5:21:86:7c:83:94:4c:65:5b:93:ae:
        15:bc:b6:ad:61:db:da:19:31:16:38:5f:e3:58:10:38:3d:f5:
        a1:6b:29:cf:14:d1:06:72:b1:e8:83:4d:c6:a0:ac:9c:a1:41:
        d1:f5:aa:4a:70:f5:f2:02:32:e9:38:c9:72:2c:3d:a2:2f:b1:
        7f:fc:29:17:ac:d9:99:00:e4:99:a6:44:b9:be:92:c1:b4:48:
        96:3f:8a:26:b4:67:68:74:07:41:76:6f:91:70:1f:36:06:ea:
        cc:ac:6b:af:cd:3a:ec:8e:29:63:5f:ef:dc:2d:8e:1e:ba:61:
        f9:aa:d8:5d:12:55:e3:e2:28:8c:08:15:97:c2:5c:54:87:ea:
        80:e7:88:b1:8c:9f:f0:bd:a9:17:79:3f:f8:60:25:36:1e:16:
        ca:88:65:d5:ae:4d:78:4b:e1:29:3a:ba:d1:b2:09:5c:5f:4e:
        de:80:09:b7:11:51:9c:2e:d4:f7:6f:24:19:9a:42:c2:67:00:
        01:71:58:b7:8d:35:82:0b:28:93:2f:44:1b:94:cb:2b:55:89:
        9d:4a:5a:8a
-----BEGIN CERTIFICATE-----
MIIFazCCBFOgAwIBAgIBBzANBgkqhkiG9w0BAQsFADCBzDELMAkGA1UEBhMCMDAx
DTALBgNVBAgMBHRlc3QxNzA1BgNVBAcMLlRFU1QgLC4vPD4gID87OkB+ICBbXSEl
XiAgKigpLT0gIF8rfCAoMjMpIFRFU1QxFDASBgNVBAoMC2V4YW1wbGUub3JnMSQw
IgYDVQQLDBtURVNUIGVzYyB7ICDCoyDCrCAoNCkgVEVTVH0xGjAYBgNVBAMMEWVh
c3l0bHMtdW5pdC10ZXN0MR0wGwYJKoZIhvcNAQkBFg5tZUBleGFtcGxlLm5ldDAe
Fw0yMjAyMjUyMzQwMjhaFw0yNDA1MzAyMzQwMjhaMIG+MQswCQYDVQQGEwIwMDEN
MAsGA1UECAwEdGVzdDE3MDUGA1UEBwwuVEVTVCAsLi88PiAgPzs6QH4gIFtdISVe
ICAqKCktPSAgXyt8ICgyMykgVEVTVDEUMBIGA1UECgwLZXhhbXBsZS5vcmcxJDAi
BgNVBAsMG1RFU1QgZXNjIHsgIMKjIMKsICg0KSBURVNUfTEMMAoGA1UEAwwDYzAx
MR0wGwYJKoZIhvcNAQkBFg5tZUBleGFtcGxlLm5ldDCCASIwDQYJKoZIhvcNAQEB
BQADggEPADCCAQoCggEBAPIqmq4CWeb4VtAsFA4QZbnx5lgb8eSk0EkcLEhF1l0q
8VwrEIPu8Iv15rR4vpAgYBJ2iY8aEUw8Z3uRK06MSw8QB5x3DUYem69urbJk+ZXC
NZf4sr+7zxypzL6Gh/zkshStMxStN0ZNZcSZVtx5jALXb0ImNrNLegOIucE6O8Se
3sxIETx7k93koArErwjCTCTYWtDZJcK5dgxn9r5n8DCfmNV9WY3ojbbkLe2J7DAE
Rab9IA+IgY7fOiQmDY70bw+h85SlxnTts1cia/xaeo4Pqn35159loqOIT0LE8by3
NH3xtAE7rQ2FDBICJH4A3JCGFvyNQow6/L94IXNrSUMCAwEAAaOCAWIwggFeMAkG
A1UdEwQCMAAwHQYDVR0OBBYEFCubuINkNoN1A5u38ZSdQH7z0A3IMIIBDgYDVR0j
BIIBBTCCAQGAFNPiY8kAfRUyG30vkSiqWbVr80UtoYHSpIHPMIHMMQswCQYDVQQG
EwIwMDENMAsGA1UECAwEdGVzdDE3MDUGA1UEBwwuVEVTVCAsLi88PiAgPzs6QH4g
IFtdISVeICAqKCktPSAgXyt8ICgyMykgVEVTVDEUMBIGA1UECgwLZXhhbXBsZS5v
cmcxJDAiBgNVBAsMG1RFU1QgZXNjIHsgIMKjIMKsICg0KSBURVNUfTEaMBgGA1UE
AwwRZWFzeXRscy11bml0LXRlc3QxHTAbBgkqhkiG9w0BCQEWDm1lQGV4YW1wbGUu
bmV0ghRnt8MgQpmITwo+AtGRxLAfwq0dajATBgNVHSUEDDAKBggrBgEFBQcDAjAL
BgNVHQ8EBAMCB4AwDQYJKoZIhvcNAQELBQADggEBAGYaf0n9p1HZhYg2qwUBgPf8
Ss7wxk9kOJmoPOvAU6kxb2EB4mKRTSjN9YzlIYZ8g5RMZVuTrhW8tq1h29oZMRY4
X+NYEDg99aFrKc8U0QZyseiDTcagrJyhQdH1qkpw9fICMuk4yXIsPaIvsX/8KRes
2ZkA5JmmRLm+ksG0SJY/iia0Z2h0B0F2b5FwHzYG6sysa6/NOuyOKWNf79wtjh66
Yfmq2F0SVePiKIwIFZfCXFSH6oDniLGMn/C9qRd5P/hgJTYeFsqIZdWuTXhL4Sk6
utGyCVxfTt6ACbcRUZwu1PdvJBmaQsJnAAFxWLeNNYILKJMvRBuUyytViZ1KWoo=
-----END CERTIFICATE-----
