Certificate:
    Data:
        Version: 3 (0x2)
        Serial Number: 10 (0xa)
        Signature Algorithm: sha256WithRSAEncryption
        Issuer: C=00, ST=test, L=TEST ,.\/<>  ?;:@~  []!%^  *()-=  _\+| (23) TEST, O=example.org, OU=TEST esc {  \xC2\xA3 \xC2\xAC (4) TEST}, CN=easytls-unit-test/emailAddress=me@example.net
        Validity
            Not Before: Feb 25 23:40:29 2022 GMT
            Not After : May 30 23:40:29 2024 GMT
        Subject: C=00, ST=test, L=TEST ,.\/<>  ?;:@~  []!%^  *()-=  _\+| (23) TEST, O=example.org, OU=TEST esc {  \xC2\xA3 \xC2\xAC (4) TEST}, CN=c05/emailAddress=me@example.net
        Subject Public Key Info:
            Public Key Algorithm: rsaEncryption
                Public-Key: (2048 bit)
                Modulus:
                    00:c5:12:2b:b6:de:0d:d6:97:d3:dc:b2:98:0f:b2:
                    80:2f:51:97:62:a5:cf:6e:d2:a3:f0:58:3b:48:ff:
                    f6:a1:7c:62:a7:89:6a:f6:1c:9b:0f:f1:0c:21:28:
                    c0:17:cb:b5:a5:e2:95:e5:19:5c:01:c4:8f:d9:aa:
                    ce:31:44:cb:13:ca:f0:db:90:70:97:47:13:b6:3a:
                    a4:66:8b:94:54:00:ca:50:dd:bb:49:ed:1b:6d:4e:
                    a6:85:02:c8:7b:5f:61:cd:27:50:e5:2a:ec:63:9e:
                    92:22:89:45:ed:48:e5:f3:c8:59:84:ab:34:78:ae:
                    74:cd:ba:85:07:e3:60:dd:25:c5:73:82:52:52:da:
                    f2:d4:1d:94:c8:5b:19:6b:53:77:fe:bf:64:72:83:
                    1d:2b:7d:74:04:e6:6b:cd:bd:f8:a2:6d:17:5e:bd:
                    cf:ff:90:f9:f9:ce:44:10:e2:e0:73:59:e0:cd:d0:
                    64:ba:a9:b5:d3:c1:77:59:f9:22:f5:4f:aa:3d:76:
                    78:8c:8c:cf:30:d9:5a:f3:8e:cc:12:26:21:dc:10:
                    d2:82:2a:f9:6f:50:64:d5:4f:b7:3f:bb:c8:d2:d3:
                    13:ff:e0:07:68:1d:ed:52:3f:50:63:95:7d:be:b5:
                    b0:f2:12:0d:bc:3e:bb:7a:fb:af:99:47:2f:d9:e5:
                    67:23
                Exponent: 65537 (0x10001)
        X509v3 extensions:
            X509v3 Basic Constraints: 
                CA:FALSE
            X509v3 Subject Key Identifier: 
                48:5A:6C:8C:53:7B:B6:62:70:73:16:B6:09:8F:DF:EF:01:13:E4:BE
            X509v3 Authority Key Identifier: 
                keyid:D3:E2:63:C9:00:7D:15:32:1B:7D:2F:91:28:AA:59:B5:6B:F3:45:2D
                DirName:/C=00/ST=test/L=TEST ,.\/<>  ?;:@~  []!%^  *()-=  _\+| (23) TEST/O=example.org/OU=TEST esc {  \xC2\xA3 \xC2\xAC (4) TEST}/CN=easytls-unit-test/emailAddress=me@example.net
                serial:67:B7:C3:20:42:99:88:4F:0A:3E:02:D1:91:C4:B0:1F:C2:AD:1D:6A
            X509v3 Extended Key Usage: 
                TLS Web Client Authentication
            X509v3 Key Usage: 
                Digital Signature
    Signature Algorithm: sha256WithRSAEncryption
    Signature Value:
        00:0b:e9:2c:57:fc:d3:5f:8e:47:ba:dc:ed:a3:6d:47:b1:27:
        a6:50:06:d4:13:b9:05:d7:de:69:23:87:f4:7e:94:3c:d6:7b:
        17:ed:26:f7:0d:c9:e5:55:27:4a:ec:eb:8d:9c:bc:c3:e6:af:
        af:d0:24:cc:d7:0b:1f:95:97:71:da:a1:1c:ed:31:90:c4:02:
        5f:70:16:d7:1b:dd:63:54:80:e2:d2:4a:7b:a3:fd:4e:65:61:
        6d:9a:7b:14:c8:20:8f:e3:57:66:b3:18:49:c3:57:10:d7:84:
        5b:b1:11:ea:ae:9a:0e:eb:ee:d3:72:b7:8f:46:3d:69:fd:1b:
        4f:66:b2:69:da:60:60:bf:ee:95:8b:ac:ed:e8:6d:5e:a6:33:
        ae:37:cd:e6:44:2d:64:3c:50:13:6f:fd:8f:7b:1a:2f:f9:fc:
        6e:07:6a:37:f8:51:a6:bb:23:b0:51:ef:a8:18:5d:ff:f2:b5:
        7b:38:94:20:ed:2b:56:3a:14:75:92:96:42:c6:56:82:ee:7d:
        b3:5f:f7:58:4f:c4:84:ad:ba:34:e3:0f:50:36:be:71:47:e6:
        df:43:50:eb:5f:a4:64:53:e8:2c:76:7f:4b:e8:10:d0:34:ca:
        5d:25:6d:5b:8e:f5:0c:52:fa:57:d4:1c:63:50:56:04:e3:ac:
        f8:49:5a:3b
-----BEGIN CERTIFICATE-----
MIIFazCCBFOgAwIBAgIBCjANBgkqhkiG9w0BAQsFADCBzDELMAkGA1UEBhMCMDAx
DTALBgNVBAgMBHRlc3QxNzA1BgNVBAcMLlRFU1QgLC4vPD4gID87OkB+ICBbXSEl
XiAgKigpLT0gIF8rfCAoMjMpIFRFU1QxFDASBgNVBAoMC2V4YW1wbGUub3JnMSQw
IgYDVQQLDBtURVNUIGVzYyB7ICDCoyDCrCAoNCkgVEVTVH0xGjAYBgNVBAMMEWVh
c3l0bHMtdW5pdC10ZXN0MR0wGwYJKoZIhvcNAQkBFg5tZUBleGFtcGxlLm5ldDAe
Fw0yMjAyMjUyMzQwMjlaFw0yNDA1MzAyMzQwMjlaMIG+MQswCQYDVQQGEwIwMDEN
MAsGA1UECAwEdGVzdDE3MDUGA1UEBwwuVEVTVCAsLi88PiAgPzs6QH4gIFtdISVe
ICAqKCktPSAgXyt8ICgyMykgVEVTVDEUMBIGA1UECgwLZXhhbXBsZS5vcmcxJDAi
BgNVBAsMG1RFU1QgZXNjIHsgIMKjIMKsICg0KSBURVNUfTEMMAoGA1UEAwwDYzA1
MR0wGwYJKoZIhvcNAQkBFg5tZUBleGFtcGxlLm5ldDCCASIwDQYJKoZIhvcNAQEB
BQADggEPADCCAQoCggEBAMUSK7beDdaX09yymA+ygC9Rl2Klz27So/BYO0j/9qF8
YqeJavYcmw/xDCEowBfLtaXileUZXAHEj9mqzjFEyxPK8NuQcJdHE7Y6pGaLlFQA
ylDdu0ntG21OpoUCyHtfYc0nUOUq7GOekiKJRe1I5fPIWYSrNHiudM26hQfjYN0l
xXOCUlLa8tQdlMhbGWtTd/6/ZHKDHSt9dATma829+KJtF169z/+Q+fnORBDi4HNZ
4M3QZLqptdPBd1n5IvVPqj12eIyMzzDZWvOOzBImIdwQ0oIq+W9QZNVPtz+7yNLT
E//gB2gd7VI/UGOVfb61sPISDbw+u3r7r5lHL9nlZyMCAwEAAaOCAWIwggFeMAkG
A1UdEwQCMAAwHQYDVR0OBBYEFEhabIxTe7ZicHMWtgmP3+8BE+S+MIIBDgYDVR0j
BIIBBTCCAQGAFNPiY8kAfRUyG30vkSiqWbVr80UtoYHSpIHPMIHMMQswCQYDVQQG
EwIwMDENMAsGA1UECAwEdGVzdDE3MDUGA1UEBwwuVEVTVCAsLi88PiAgPzs6QH4g
IFtdISVeICAqKCktPSAgXyt8ICgyMykgVEVTVDEUMBIGA1UECgwLZXhhbXBsZS5v
cmcxJDAiBgNVBAsMG1RFU1QgZXNjIHsgIMKjIMKsICg0KSBURVNUfTEaMBgGA1UE
AwwRZWFzeXRscy11bml0LXRlc3QxHTAbBgkqhkiG9w0BCQEWDm1lQGV4YW1wbGUu
bmV0ghRnt8MgQpmITwo+AtGRxLAfwq0dajATBgNVHSUEDDAKBggrBgEFBQcDAjAL
BgNVHQ8EBAMCB4AwDQYJKoZIhvcNAQELBQADggEBAAAL6SxX/NNfjke63O2jbUex
J6ZQBtQTuQXX3mkjh/R+lDzWexftJvcNyeVVJ0rs642cvMPmr6/QJMzXCx+Vl3Ha
oRztMZDEAl9wFtcb3WNUgOLSSnuj/U5lYW2aexTIII/jV2azGEnDVxDXhFuxEequ
mg7r7tNyt49GPWn9G09msmnaYGC/7pWLrO3obV6mM643zeZELWQ8UBNv/Y97Gi/5
/G4Hajf4Uaa7I7BR76gYXf/ytXs4lCDtK1Y6FHWSlkLGVoLufbNf91hPxIStujTj
D1A2vnFH5t9DUOtfpGRT6Cx2f0voENA0yl0lbVuO9QxS+lfUHGNQVgTjrPhJWjs=
-----END CERTIFICATE-----
