Certificate:
    Data:
        Version: 3 (0x2)
        Serial Number: 11 (0xb)
        Signature Algorithm: sha256WithRSAEncryption
        Issuer: C=00, ST=test, L=TEST ,.\/<>  ?;:@~  []!%^  *()-=  _\+| (23) TEST, O=example.org, OU=TEST esc {  \xC2\xA3 \xC2\xAC (4) TEST}, CN=easytls-unit-test/emailAddress=me@example.net
        Validity
            Not Before: Feb 25 23:40:30 2022 GMT
            Not After : May 30 23:40:30 2024 GMT
        Subject: C=00, ST=test, L=TEST ,.\/<>  ?;:@~  []!%^  *()-=  _\+| (23) TEST, O=example.org, OU=TEST esc {  \xC2\xA3 \xC2\xAC (4) TEST}, CN=c06/emailAddress=me@example.net
        Subject Public Key Info:
            Public Key Algorithm: rsaEncryption
                Public-Key: (2048 bit)
                Modulus:
                    00:b1:75:92:21:54:b9:b8:66:5f:10:97:a9:8d:09:
                    df:14:54:f3:4f:be:9b:4c:a0:8f:76:77:20:2f:23:
                    3d:4a:21:b0:4b:5f:4b:d0:cd:50:28:86:48:c7:f6:
                    cf:89:7d:07:09:b5:53:b2:34:ca:8a:11:53:ab:92:
                    00:50:41:1f:3a:29:e4:23:cf:e3:2b:db:37:28:40:
                    fa:8c:fd:a8:63:bf:f7:df:b9:b1:ed:a7:8c:94:ef:
                    dc:1b:02:ad:8d:ee:cd:ab:39:9a:27:4a:db:a8:81:
                    f2:67:0d:8b:92:da:df:e3:17:de:c7:ea:25:9c:80:
                    e3:de:7f:6f:d9:5b:b0:6f:f7:63:79:1f:22:42:f3:
                    cf:d0:7f:b1:98:c6:f5:ea:c2:ff:85:37:40:7f:c0:
                    bf:e8:87:29:a3:a8:d0:45:ae:73:50:99:51:99:06:
                    c7:72:f2:46:33:ab:a3:f7:63:23:39:8d:fe:ab:15:
                    74:44:18:b1:1b:07:0b:01:7f:4d:fa:2d:f6:11:01:
                    71:ea:ac:1f:ac:1f:b6:9e:77:f3:ec:b6:7c:a7:02:
                    d5:72:56:11:39:0b:59:5c:35:aa:ce:22:cc:69:e4:
                    4f:fc:72:d2:ab:a6:ed:90:a9:61:f5:ea:14:7e:a2:
                    5d:e5:66:47:b4:44:4a:ec:dd:db:44:31:6b:94:5f:
                    16:2b
                Exponent: 65537 (0x10001)
        X509v3 extensions:
            X509v3 Basic Constraints: 
                CA:FALSE
            X509v3 Subject Key Identifier: 
                96:D0:9A:FF:5A:B8:76:34:CD:A1:18:17:D1:6A:58:E9:50:29:EF:4F
            X509v3 Authority Key Identifier: 
                keyid:D3:E2:63:C9:00:7D:15:32:1B:7D:2F:91:28:AA:59:B5:6B:F3:45:2D
                DirName:/C=00/ST=test/L=TEST ,.\/<>  ?;:@~  []!%^  *()-=  _\+| (23) TEST/O=example.org/OU=TEST esc {  \xC2\xA3 \xC2\xAC (4) TEST}/CN=easytls-unit-test/emailAddress=me@example.net
                serial:67:B7:C3:20:42:99:88:4F:0A:3E:02:D1:91:C4:B0:1F:C2:AD:1D:6A
            X509v3 Extended Key Usage: 
                TLS Web Client Authentication
            X509v3 Key Usage: 
                Digital Signature
    Signature Algorithm: sha256WithRSAEncryption
    Signature Value:
        04:51:f4:11:b3:56:40:14:bb:d2:24:a7:e0:a6:cd:a3:7a:90:
        6c:35:eb:3a:82:b1:e8:b3:85:bf:2f:42:10:55:ed:8d:74:1c:
        8d:1a:84:df:a4:cf:28:ca:1a:f0:d8:48:de:5d:bb:16:bc:31:
        e8:db:14:c9:d1:33:95:ad:00:4d:1f:56:5e:62:8e:3e:e6:92:
        8d:f1:24:78:67:7d:0a:b3:0e:fb:56:60:f4:a2:bb:13:19:1d:
        80:41:85:83:3f:55:b3:f7:5f:26:5c:cd:d8:65:00:36:41:29:
        f5:b1:c8:5c:4f:0e:3b:5d:57:b6:e1:fe:c9:7a:8f:74:50:76:
        6e:9c:cb:46:fc:b5:d0:e6:bd:a1:34:1e:85:a4:8d:98:8c:fc:
        94:05:bf:5b:a2:a7:8c:37:4c:cc:d2:f7:ee:1d:7e:a9:f1:c8:
        21:91:ac:ca:a7:8b:4f:ed:f1:3a:0b:a8:9e:ac:9c:5a:2b:41:
        b7:a4:69:7d:6c:a7:24:25:5e:ed:bc:7f:19:64:3b:cb:2e:b8:
        a7:bf:70:a5:5a:46:fa:bc:08:f7:11:fa:87:2e:25:1b:d6:2e:
        74:fc:7e:30:f0:59:2a:eb:32:55:31:de:3a:d9:5d:87:f8:47:
        d3:15:32:d2:4e:67:07:26:ca:0f:db:6d:a6:23:97:28:e7:34:
        73:8e:22:69
-----BEGIN CERTIFICATE-----
MIIFazCCBFOgAwIBAgIBCzANBgkqhkiG9w0BAQsFADCBzDELMAkGA1UEBhMCMDAx
DTALBgNVBAgMBHRlc3QxNzA1BgNVBAcMLlRFU1QgLC4vPD4gID87OkB+ICBbXSEl
XiAgKigpLT0gIF8rfCAoMjMpIFRFU1QxFDASBgNVBAoMC2V4YW1wbGUub3JnMSQw
IgYDVQQLDBtURVNUIGVzYyB7ICDCoyDCrCAoNCkgVEVTVH0xGjAYBgNVBAMMEWVh
c3l0bHMtdW5pdC10ZXN0MR0wGwYJKoZIhvcNAQkBFg5tZUBleGFtcGxlLm5ldDAe
Fw0yMjAyMjUyMzQwMzBaFw0yNDA1MzAyMzQwMzBaMIG+MQswCQYDVQQGEwIwMDEN
MAsGA1UECAwEdGVzdDE3MDUGA1UEBwwuVEVTVCAsLi88PiAgPzs6QH4gIFtdISVe
ICAqKCktPSAgXyt8ICgyMykgVEVTVDEUMBIGA1UECgwLZXhhbXBsZS5vcmcxJDAi
BgNVBAsMG1RFU1QgZXNjIHsgIMKjIMKsICg0KSBURVNUfTEMMAoGA1UEAwwDYzA2
MR0wGwYJKoZIhvcNAQkBFg5tZUBleGFtcGxlLm5ldDCCASIwDQYJKoZIhvcNAQEB
BQADggEPADCCAQoCggEBALF1kiFUubhmXxCXqY0J3xRU80++m0ygj3Z3IC8jPUoh
sEtfS9DNUCiGSMf2z4l9Bwm1U7I0yooRU6uSAFBBHzop5CPP4yvbNyhA+oz9qGO/
99+5se2njJTv3BsCrY3uzas5midK26iB8mcNi5La3+MX3sfqJZyA495/b9lbsG/3
Y3kfIkLzz9B/sZjG9erC/4U3QH/Av+iHKaOo0EWuc1CZUZkGx3LyRjOro/djIzmN
/qsVdEQYsRsHCwF/Tfot9hEBceqsH6wftp538+y2fKcC1XJWETkLWVw1qs4izGnk
T/xy0qum7ZCpYfXqFH6iXeVmR7RESuzd20Qxa5RfFisCAwEAAaOCAWIwggFeMAkG
A1UdEwQCMAAwHQYDVR0OBBYEFJbQmv9auHY0zaEYF9FqWOlQKe9PMIIBDgYDVR0j
BIIBBTCCAQGAFNPiY8kAfRUyG30vkSiqWbVr80UtoYHSpIHPMIHMMQswCQYDVQQG
EwIwMDENMAsGA1UECAwEdGVzdDE3MDUGA1UEBwwuVEVTVCAsLi88PiAgPzs6QH4g
IFtdISVeICAqKCktPSAgXyt8ICgyMykgVEVTVDEUMBIGA1UECgwLZXhhbXBsZS5v
cmcxJDAiBgNVBAsMG1RFU1QgZXNjIHsgIMKjIMKsICg0KSBURVNUfTEaMBgGA1UE
AwwRZWFzeXRscy11bml0LXRlc3QxHTAbBgkqhkiG9w0BCQEWDm1lQGV4YW1wbGUu
bmV0ghRnt8MgQpmITwo+AtGRxLAfwq0dajATBgNVHSUEDDAKBggrBgEFBQcDAjAL
BgNVHQ8EBAMCB4AwDQYJKoZIhvcNAQELBQADggEBAARR9BGzVkAUu9Ikp+CmzaN6
kGw16zqCseizhb8vQhBV7Y10HI0ahN+kzyjKGvDYSN5duxa8MejbFMnRM5WtAE0f
Vl5ijj7mko3xJHhnfQqzDvtWYPSiuxMZHYBBhYM/VbP3XyZczdhlADZBKfWxyFxP
DjtdV7bh/sl6j3RQdm6cy0b8tdDmvaE0HoWkjZiM/JQFv1uip4w3TMzS9+4dfqnx
yCGRrMqni0/t8ToLqJ6snForQbekaX1spyQlXu28fxlkO8suuKe/cKVaRvq8CPcR
+ocuJRvWLnT8fjDwWSrrMlUx3jrZXYf4R9MVMtJOZwcmyg/bbaYjlyjnNHOOImk=
-----END CERTIFICATE-----
