Certificate:
    Data:
        Version: 3 (0x2)
        Serial Number: 18 (0x12)
        Signature Algorithm: sha256WithRSAEncryption
        Issuer: C=00, ST=test, L=TEST ,.\/<>  ?;:@~  []!%^  *()-=  _\+| (23) TEST, O=example.org, OU=TEST esc {  \xC2\xA3 \xC2\xAC (4) TEST}, CN=easytls-unit-test/emailAddress=me@example.net
        Validity
            Not Before: Feb 25 23:41:04 2022 GMT
            Not After : May 30 23:41:04 2024 GMT
        Subject: C=00, ST=test, L=TEST ,.\/<>  ?;:@~  []!%^  *()-=  _\+| (23) TEST, O=example.org, OU=TEST esc {  \xC2\xA3 \xC2\xAC (4) TEST}, CN=c08/emailAddress=me@example.net
        Subject Public Key Info:
            Public Key Algorithm: rsaEncryption
                Public-Key: (2048 bit)
                Modulus:
                    00:b2:c3:49:01:6f:b3:6a:2d:98:67:cd:f8:90:0b:
                    89:0f:f5:04:59:ce:d1:49:8c:0b:5c:2d:20:53:df:
                    24:08:2e:a3:cc:d7:ad:1c:30:48:66:5f:a2:f8:26:
                    7e:f2:a7:11:58:78:04:88:0b:07:72:a3:69:a2:91:
                    be:a4:b6:32:34:3e:aa:00:b2:10:4f:4d:bd:26:67:
                    29:be:25:7a:15:d3:d8:2d:87:31:19:6e:35:10:69:
                    11:37:e2:a5:44:ef:84:e8:51:00:81:c8:05:ff:10:
                    30:e7:89:a5:33:28:7b:15:65:f6:e4:05:3c:b6:ff:
                    55:97:61:f3:84:f9:bf:c2:7e:01:f5:2c:2d:58:4f:
                    b5:a0:61:e1:2e:31:6f:31:06:16:fa:60:9c:85:ce:
                    a0:6b:be:eb:8e:c9:31:69:c0:0d:ab:9d:99:dd:27:
                    65:27:98:df:a0:e8:99:d7:ef:55:c0:ff:70:7a:9c:
                    11:68:03:b3:3a:4d:32:92:e9:a1:d0:4c:99:86:4f:
                    8f:a7:e8:15:6b:f9:79:c1:3c:a6:f9:c0:3d:a7:50:
                    11:aa:43:56:67:ac:3d:ed:4b:eb:ba:c2:08:69:34:
                    f0:2c:d2:d3:0c:db:34:d6:9b:84:ac:96:72:9e:c4:
                    17:04:de:5d:73:cc:3f:d9:31:9b:f9:33:24:b8:64:
                    15:a5
                Exponent: 65537 (0x10001)
        X509v3 extensions:
            X509v3 Basic Constraints: 
                CA:FALSE
            X509v3 Subject Key Identifier: 
                E7:54:25:23:B8:F8:C0:3A:4D:17:90:2F:B7:EC:48:33:62:9A:7B:FD
            X509v3 Authority Key Identifier: 
                keyid:D3:E2:63:C9:00:7D:15:32:1B:7D:2F:91:28:AA:59:B5:6B:F3:45:2D
                DirName:/C=00/ST=test/L=TEST ,.\/<>  ?;:@~  []!%^  *()-=  _\+| (23) TEST/O=example.org/OU=TEST esc {  \xC2\xA3 \xC2\xAC (4) TEST}/CN=easytls-unit-test/emailAddress=me@example.net
                serial:67:B7:C3:20:42:99:88:4F:0A:3E:02:D1:91:C4:B0:1F:C2:AD:1D:6A
            X509v3 Extended Key Usage: 
                TLS Web Client Authentication
            X509v3 Key Usage: 
                Digital Signature
    Signature Algorithm: sha256WithRSAEncryption
    Signature Value:
        27:91:17:9c:bc:bd:81:8b:72:fe:ff:bb:ab:90:9c:6c:7b:2d:
        9a:a8:6a:96:d9:33:fd:bc:07:0c:33:bb:be:a7:65:98:e2:35:
        b4:d2:e1:91:76:5c:04:ee:ce:b1:2f:f4:d0:2c:38:d6:44:fd:
        b3:07:81:61:cd:1d:72:3e:02:3d:a0:00:1c:61:49:7e:6b:95:
        fa:8b:77:e0:7f:e1:d2:ad:7a:56:21:17:83:de:e0:7a:c1:64:
        02:92:38:02:c8:ad:46:84:33:89:90:85:b7:fd:3d:01:3f:8d:
        65:67:ef:68:7e:97:fd:95:e7:a1:3a:b4:5a:25:0a:4b:44:2a:
        64:07:7e:6b:c0:48:1e:eb:36:e4:a9:19:86:93:71:bf:32:5f:
        62:23:dd:27:4c:ac:34:ee:c7:8c:9f:d4:61:a4:45:a1:d8:67:
        87:bb:32:4d:61:0c:04:19:99:bd:8f:c1:c4:21:04:35:45:70:
        08:40:07:15:1c:0f:88:52:d2:7d:d4:ae:9e:ee:d6:89:1d:03:
        18:c1:79:c7:d2:b6:51:83:2a:8b:9e:08:1c:87:0d:28:40:69:
        b6:56:05:fd:ef:16:2a:c0:a0:a2:04:c5:98:36:02:6f:c5:4e:
        fd:e7:f8:f8:36:36:0c:37:ea:06:d7:09:27:89:5c:c9:58:75:
        ff:be:80:09
-----BEGIN CERTIFICATE-----
MIIFazCCBFOgAwIBAgIBEjANBgkqhkiG9w0BAQsFADCBzDELMAkGA1UEBhMCMDAx
DTALBgNVBAgMBHRlc3QxNzA1BgNVBAcMLlRFU1QgLC4vPD4gID87OkB+ICBbXSEl
XiAgKigpLT0gIF8rfCAoMjMpIFRFU1QxFDASBgNVBAoMC2V4YW1wbGUub3JnMSQw
IgYDVQQLDBtURVNUIGVzYyB7ICDCoyDCrCAoNCkgVEVTVH0xGjAYBgNVBAMMEWVh
c3l0bHMtdW5pdC10ZXN0MR0wGwYJKoZIhvcNAQkBFg5tZUBleGFtcGxlLm5ldDAe
Fw0yMjAyMjUyMzQxMDRaFw0yNDA1MzAyMzQxMDRaMIG+MQswCQYDVQQGEwIwMDEN
MAsGA1UECAwEdGVzdDE3MDUGA1UEBwwuVEVTVCAsLi88PiAgPzs6QH4gIFtdISVe
ICAqKCktPSAgXyt8ICgyMykgVEVTVDEUMBIGA1UECgwLZXhhbXBsZS5vcmcxJDAi
BgNVBAsMG1RFU1QgZXNjIHsgIMKjIMKsICg0KSBURVNUfTEMMAoGA1UEAwwDYzA4
MR0wGwYJKoZIhvcNAQkBFg5tZUBleGFtcGxlLm5ldDCCASIwDQYJKoZIhvcNAQEB
BQADggEPADCCAQoCggEBALLDSQFvs2otmGfN+JALiQ/1BFnO0UmMC1wtIFPfJAgu
o8zXrRwwSGZfovgmfvKnEVh4BIgLB3KjaaKRvqS2MjQ+qgCyEE9NvSZnKb4lehXT
2C2HMRluNRBpETfipUTvhOhRAIHIBf8QMOeJpTMoexVl9uQFPLb/VZdh84T5v8J+
AfUsLVhPtaBh4S4xbzEGFvpgnIXOoGu+647JMWnADaudmd0nZSeY36DomdfvVcD/
cHqcEWgDszpNMpLpodBMmYZPj6foFWv5ecE8pvnAPadQEapDVmesPe1L67rCCGk0
8CzS0wzbNNabhKyWcp7EFwTeXXPMP9kxm/kzJLhkFaUCAwEAAaOCAWIwggFeMAkG
A1UdEwQCMAAwHQYDVR0OBBYEFOdUJSO4+MA6TReQL7fsSDNimnv9MIIBDgYDVR0j
BIIBBTCCAQGAFNPiY8kAfRUyG30vkSiqWbVr80UtoYHSpIHPMIHMMQswCQYDVQQG
EwIwMDENMAsGA1UECAwEdGVzdDE3MDUGA1UEBwwuVEVTVCAsLi88PiAgPzs6QH4g
IFtdISVeICAqKCktPSAgXyt8ICgyMykgVEVTVDEUMBIGA1UECgwLZXhhbXBsZS5v
cmcxJDAiBgNVBAsMG1RFU1QgZXNjIHsgIMKjIMKsICg0KSBURVNUfTEaMBgGA1UE
AwwRZWFzeXRscy11bml0LXRlc3QxHTAbBgkqhkiG9w0BCQEWDm1lQGV4YW1wbGUu
bmV0ghRnt8MgQpmITwo+AtGRxLAfwq0dajATBgNVHSUEDDAKBggrBgEFBQcDAjAL
BgNVHQ8EBAMCB4AwDQYJKoZIhvcNAQELBQADggEBACeRF5y8vYGLcv7/u6uQnGx7
LZqoapbZM/28Bwwzu76nZZjiNbTS4ZF2XATuzrEv9NAsONZE/bMHgWHNHXI+Aj2g
ABxhSX5rlfqLd+B/4dKtelYhF4Pe4HrBZAKSOALIrUaEM4mQhbf9PQE/jWVn72h+
l/2V56E6tFolCktEKmQHfmvASB7rNuSpGYaTcb8yX2Ij3SdMrDTux4yf1GGkRaHY
Z4e7Mk1hDAQZmb2PwcQhBDVFcAhABxUcD4hS0n3Urp7u1okdAxjBecfStlGDKoue
CByHDShAabZWBf3vFirAoKIExZg2Am/FTv3n+Pg2Ngw36gbXCSeJXMlYdf++gAk=
-----END CERTIFICATE-----
