Certificate:
    Data:
        Version: 3 (0x2)
        Serial Number: 2 (0x2)
        Signature Algorithm: sha256WithRSAEncryption
        Issuer: C=00, ST=test, L=TEST ,.\/<>  ?;:@~  []!%^  *()-=  _\+| (23) TEST, O=example.org, OU=TEST esc {  \xC2\xA3 \xC2\xAC (4) TEST}, CN=easytls-unit-test/emailAddress=me@example.net
        Validity
            Not Before: Feb 25 23:40:25 2022 GMT
            Not After : May 30 23:40:25 2024 GMT
        Subject: C=00, ST=test, L=TEST ,.\/<>  ?;:@~  []!%^  *()-=  _\+| (23) TEST, O=example.org, OU=TEST esc {  \xC2\xA3 \xC2\xAC (4) TEST}, CN=s02/emailAddress=me@example.net
        Subject Public Key Info:
            Public Key Algorithm: rsaEncryption
                Public-Key: (2048 bit)
                Modulus:
                    00:d2:ed:11:f4:03:c1:c0:aa:c1:61:2a:47:c2:f5:
                    df:28:c2:f7:0d:48:8c:dd:82:57:24:d6:0c:3a:39:
                    d9:72:79:52:f8:26:66:01:78:fd:62:56:8e:72:41:
                    d7:3b:55:0c:87:3f:a8:da:51:9b:28:bd:79:84:20:
                    3b:af:20:d0:d3:5b:fb:5d:4b:8b:16:4b:47:7f:59:
                    48:c4:16:34:b4:b4:d3:b5:26:dd:3b:bc:06:d0:30:
                    2e:b4:a4:79:3e:03:ca:60:93:18:78:5f:a1:11:db:
                    36:e7:52:91:61:98:2a:04:33:8b:14:3e:fc:66:f4:
                    14:d5:ef:15:de:d1:78:b5:c6:36:98:52:ae:d8:06:
                    14:f9:95:50:16:66:1a:20:da:fe:86:7f:fb:4a:bc:
                    d5:03:f8:1a:3b:32:54:74:af:38:6d:c2:05:06:16:
                    f3:b8:84:15:83:1a:e9:01:d0:6c:70:47:93:3d:df:
                    61:1b:94:cf:ae:de:14:a1:0b:66:b2:a7:d3:00:3a:
                    e7:b7:69:d5:1f:21:d0:cb:63:b3:37:4c:40:31:b0:
                    a7:6e:4c:ac:87:b5:4f:80:33:af:df:3d:e1:a2:14:
                    d6:3f:85:2c:71:bf:d6:49:87:93:38:c4:92:15:82:
                    5e:db:f0:f4:75:0f:f0:28:6b:96:92:31:61:09:f0:
                    84:5d
                Exponent: 65537 (0x10001)
        X509v3 extensions:
            X509v3 Basic Constraints: 
                CA:FALSE
            X509v3 Subject Key Identifier: 
                82:C4:61:24:B7:28:03:2B:61:E4:F5:7F:74:5B:53:6E:D6:23:71:2D
            X509v3 Authority Key Identifier: 
                keyid:D3:E2:63:C9:00:7D:15:32:1B:7D:2F:91:28:AA:59:B5:6B:F3:45:2D
                DirName:/C=00/ST=test/L=TEST ,.\/<>  ?;:@~  []!%^  *()-=  _\+| (23) TEST/O=example.org/OU=TEST esc {  \xC2\xA3 \xC2\xAC (4) TEST}/CN=easytls-unit-test/emailAddress=me@example.net
                serial:67:B7:C3:20:42:99:88:4F:0A:3E:02:D1:91:C4:B0:1F:C2:AD:1D:6A
            X509v3 Extended Key Usage: 
                TLS Web Server Authentication
            X509v3 Key Usage: 
                Digital Signature, Key Encipherment
            X509v3 Subject Alternative Name: 
                DNS:s02
    Signature Algorithm: sha256WithRSAEncryption
    Signature Value:
        61:55:28:4c:00:f2:ba:71:e1:ea:59:82:06:c4:13:ba:94:e3:
        d7:aa:aa:33:32:84:02:93:18:1f:87:a7:bd:77:58:29:19:82:
        fd:43:4c:00:e5:38:b6:82:15:66:a4:23:ee:f6:24:07:da:81:
        ef:cc:48:30:6c:2a:0c:ba:d3:dd:b4:f5:7f:63:32:39:8a:e2:
        d1:0d:3f:6f:44:25:a8:2c:52:1f:37:82:3b:81:c1:28:1f:88:
        e2:66:5f:2c:35:86:68:03:d7:9b:ca:06:ab:57:3d:fb:ed:2d:
        9b:40:ff:1e:bb:2f:2e:b5:0f:99:ad:b4:f3:d8:60:31:c3:94:
        c8:2e:af:59:bb:d2:fd:9d:c9:c9:bf:d6:b3:15:cd:61:c7:d5:
        5d:55:f9:3e:3a:ab:a1:5c:7b:64:a7:b6:7b:0d:d1:38:cf:e8:
        d7:bf:29:86:bd:e4:a2:0c:72:58:4b:9c:5b:ef:27:66:eb:57:
        2a:3f:63:45:1b:4e:4e:a0:14:8a:24:33:a7:46:e4:a0:9c:a0:
        06:e1:2e:55:e7:da:4a:1f:3e:83:67:d6:88:17:98:84:19:27:
        13:dc:a4:81:8a:11:87:26:3b:0f:25:59:96:95:7b:f6:6a:9a:
        83:e5:1a:f6:3b:fa:04:c9:20:f1:1b:7c:a1:23:10:a7:cf:ec:
        22:cd:f4:dc
-----BEGIN CERTIFICATE-----
MIIFezCCBGOgAwIBAgIBAjANBgkqhkiG9w0BAQsFADCBzDELMAkGA1UEBhMCMDAx
DTALBgNVBAgMBHRlc3QxNzA1BgNVBAcMLlRFU1QgLC4vPD4gID87OkB+ICBbXSEl
XiAgKigpLT0gIF8rfCAoMjMpIFRFU1QxFDASBgNVBAoMC2V4YW1wbGUub3JnMSQw
IgYDVQQLDBtURVNUIGVzYyB7ICDCoyDCrCAoNCkgVEVTVH0xGjAYBgNVBAMMEWVh
c3l0bHMtdW5pdC10ZXN0MR0wGwYJKoZIhvcNAQkBFg5tZUBleGFtcGxlLm5ldDAe
Fw0yMjAyMjUyMzQwMjVaFw0yNDA1MzAyMzQwMjVaMIG+MQswCQYDVQQGEwIwMDEN
MAsGA1UECAwEdGVzdDE3MDUGA1UEBwwuVEVTVCAsLi88PiAgPzs6QH4gIFtdISVe
ICAqKCktPSAgXyt8ICgyMykgVEVTVDEUMBIGA1UECgwLZXhhbXBsZS5vcmcxJDAi
BgNVBAsMG1RFU1QgZXNjIHsgIMKjIMKsICg0KSBURVNUfTEMMAoGA1UEAwwDczAy
MR0wGwYJKoZIhvcNAQkBFg5tZUBleGFtcGxlLm5ldDCCASIwDQYJKoZIhvcNAQEB
BQADggEPADCCAQoCggEBANLtEfQDwcCqwWEqR8L13yjC9w1IjN2CVyTWDDo52XJ5
UvgmZgF4/WJWjnJB1ztVDIc/qNpRmyi9eYQgO68g0NNb+11LixZLR39ZSMQWNLS0
07Um3Tu8BtAwLrSkeT4DymCTGHhfoRHbNudSkWGYKgQzixQ+/Gb0FNXvFd7ReLXG
NphSrtgGFPmVUBZmGiDa/oZ/+0q81QP4GjsyVHSvOG3CBQYW87iEFYMa6QHQbHBH
kz3fYRuUz67eFKELZrKn0wA657dp1R8h0MtjszdMQDGwp25MrIe1T4Azr9894aIU
1j+FLHG/1kmHkzjEkhWCXtvw9HUP8ChrlpIxYQnwhF0CAwEAAaOCAXIwggFuMAkG
A1UdEwQCMAAwHQYDVR0OBBYEFILEYSS3KAMrYeT1f3RbU27WI3EtMIIBDgYDVR0j
BIIBBTCCAQGAFNPiY8kAfRUyG30vkSiqWbVr80UtoYHSpIHPMIHMMQswCQYDVQQG
EwIwMDENMAsGA1UECAwEdGVzdDE3MDUGA1UEBwwuVEVTVCAsLi88PiAgPzs6QH4g
IFtdISVeICAqKCktPSAgXyt8ICgyMykgVEVTVDEUMBIGA1UECgwLZXhhbXBsZS5v
cmcxJDAiBgNVBAsMG1RFU1QgZXNjIHsgIMKjIMKsICg0KSBURVNUfTEaMBgGA1UE
AwwRZWFzeXRscy11bml0LXRlc3QxHTAbBgkqhkiG9w0BCQEWDm1lQGV4YW1wbGUu
bmV0ghRnt8MgQpmITwo+AtGRxLAfwq0dajATBgNVHSUEDDAKBggrBgEFBQcDATAL
BgNVHQ8EBAMCBaAwDgYDVR0RBAcwBYIDczAyMA0GCSqGSIb3DQEBCwUAA4IBAQBh
VShMAPK6ceHqWYIGxBO6lOPXqqozMoQCkxgfh6e9d1gpGYL9Q0wA5Ti2ghVmpCPu
9iQH2oHvzEgwbCoMutPdtPV/YzI5iuLRDT9vRCWoLFIfN4I7gcEoH4jiZl8sNYZo
A9ebygarVz377S2bQP8euy8utQ+ZrbTz2GAxw5TILq9Zu9L9ncnJv9azFc1hx9Vd
Vfk+OquhXHtkp7Z7DdE4z+jXvymGveSiDHJYS5xb7ydm61cqP2NFG05OoBSKJDOn
RuSgnKAG4S5V59pKHz6DZ9aIF5iEGScT3KSBihGHJjsPJVmWlXv2apqD5Rr2O/oE
ySDxG3yhIxCnz+wizfTc
-----END CERTIFICATE-----
