Certificate:
    Data:
        Version: 3 (0x2)
        Serial Number:
            a4:a7:62:ed:d9:21:81:e1:df:8d:00:b9:64:1f:47:c5
        Signature Algorithm: sha256WithRSAEncryption
        Issuer: CN=easytls-unit-test
        Validity
            Not Before: Feb 26 00:19:08 2022 GMT
            Not After : May 31 00:19:08 2024 GMT
        Subject: CN=c06
        Subject Public Key Info:
            Public Key Algorithm: rsaEncryption
                Public-Key: (2048 bit)
                Modulus:
                    00:9f:11:d8:65:4a:de:72:0e:30:ca:c3:36:fc:3f:
                    f4:09:fd:79:22:be:a5:9c:8e:93:fa:18:ae:5e:81:
                    2a:53:fa:ef:9f:01:86:7a:25:8c:ac:bd:d1:78:ac:
                    64:15:eb:a8:a9:1a:b7:bd:fd:9b:e9:4d:96:12:04:
                    f7:0a:9b:d0:25:fa:b8:b3:64:6d:60:d6:de:05:53:
                    d8:7c:46:fa:8f:b5:5d:41:8f:97:f7:0c:1c:c7:ca:
                    4b:ef:ac:08:f6:8c:c3:45:f5:02:89:5b:0c:4c:70:
                    5b:3f:5b:e5:34:c6:23:52:b2:ac:27:3c:14:9e:dd:
                    dc:cc:c4:24:02:65:87:0b:30:32:b5:ab:db:1d:a9:
                    86:b5:e9:d8:0a:5a:3b:88:1d:0c:e1:41:3c:40:95:
                    e3:88:63:a1:61:83:7d:af:a8:b2:36:8e:ef:49:a5:
                    1c:bc:41:84:82:5e:d9:20:a9:a6:b5:ff:0f:e5:b2:
                    19:81:c5:71:71:40:a5:97:51:e7:9f:2b:65:e6:83:
                    0e:4c:52:d4:0c:62:68:bb:fc:65:f2:c8:31:a0:57:
                    3c:46:90:00:b1:52:6a:6a:32:e9:00:86:4b:ed:e2:
                    88:80:db:c5:35:55:02:55:53:ff:d2:73:13:2c:16:
                    c6:4d:dd:0e:10:1e:59:7d:2e:55:20:5a:d8:ec:b4:
                    20:4d
                Exponent: 65537 (0x10001)
        X509v3 extensions:
            X509v3 Basic Constraints: 
                CA:FALSE
            X509v3 Subject Key Identifier: 
                81:6D:EA:9D:70:76:D8:B8:AD:27:84:16:02:5D:A9:F0:9D:15:D7:87
            X509v3 Authority Key Identifier: 
                keyid:7F:DB:A7:04:5F:A0:23:1F:C0:6E:CD:55:F0:15:C6:27:55:BC:80:B8
                DirName:/CN=easytls-unit-test
                serial:25:21:EE:52:13:98:94:DC:17:DA:54:03:39:A8:CB:E2:42:92:23:4D
            X509v3 Extended Key Usage: 
                TLS Web Client Authentication
            X509v3 Key Usage: 
                Digital Signature
    Signature Algorithm: sha256WithRSAEncryption
    Signature Value:
        74:a0:70:97:27:77:8b:4e:28:7c:18:f5:f4:ec:89:f3:a4:4e:
        e4:8f:cf:ee:00:f1:54:45:8e:77:30:02:f4:54:c3:72:09:a1:
        3f:fb:7f:a0:5c:f9:68:44:20:44:f6:20:44:77:71:71:b1:c1:
        21:15:a8:e7:a6:cb:a6:fa:74:38:65:97:c7:3e:05:0d:30:42:
        a8:50:6e:60:f1:82:3a:9f:dd:38:df:28:42:94:2f:ca:51:7f:
        93:f7:46:b2:77:e7:38:42:11:a7:e6:cd:a8:12:85:ef:75:4a:
        d4:d5:6b:55:c7:12:e4:79:4d:56:e4:cb:14:63:01:95:0b:7d:
        ad:30:b2:ec:bc:c5:97:5f:f2:c0:2e:0d:6f:ff:a4:df:7a:90:
        ed:f1:6b:a6:ba:5b:19:72:e4:a5:08:86:72:f0:25:cd:41:4e:
        89:51:ef:20:d5:b6:87:18:72:90:24:4a:99:bf:cf:b3:0e:2c:
        07:5d:55:4f:33:fe:7f:bb:96:12:a1:19:c0:92:2b:b2:67:12:
        48:e6:54:41:dd:9f:8f:f5:8d:e0:11:10:e2:84:d6:da:93:83:
        13:26:94:73:e4:83:5c:c0:ae:87:0f:78:6b:a2:f7:7e:4f:f6:
        03:eb:0e:ec:65:32:97:fe:db:be:fd:d2:1a:07:e2:1a:69:af:
        c6:31:93:2d
-----BEGIN CERTIFICATE-----
MIIDXjCCAkagAwIBAgIRAKSnYu3ZIYHh340AuWQfR8UwDQYJKoZIhvcNAQELBQAw
HDEaMBgGA1UEAwwRZWFzeXRscy11bml0LXRlc3QwHhcNMjIwMjI2MDAxOTA4WhcN
MjQwNTMxMDAxOTA4WjAOMQwwCgYDVQQDDANjMDYwggEiMA0GCSqGSIb3DQEBAQUA
A4IBDwAwggEKAoIBAQCfEdhlSt5yDjDKwzb8P/QJ/XkivqWcjpP6GK5egSpT+u+f
AYZ6JYysvdF4rGQV66ipGre9/ZvpTZYSBPcKm9Al+rizZG1g1t4FU9h8RvqPtV1B
j5f3DBzHykvvrAj2jMNF9QKJWwxMcFs/W+U0xiNSsqwnPBSe3dzMxCQCZYcLMDK1
q9sdqYa16dgKWjuIHQzhQTxAleOIY6Fhg32vqLI2ju9JpRy8QYSCXtkgqaa1/w/l
shmBxXFxQKWXUeefK2Xmgw5MUtQMYmi7/GXyyDGgVzxGkACxUmpqMukAhkvt4oiA
28U1VQJVU//ScxMsFsZN3Q4QHll9LlUgWtjstCBNAgMBAAGjgagwgaUwCQYDVR0T
BAIwADAdBgNVHQ4EFgQUgW3qnXB22LitJ4QWAl2p8J0V14cwVwYDVR0jBFAwToAU
f9unBF+gIx/Abs1V8BXGJ1W8gLihIKQeMBwxGjAYBgNVBAMMEWVhc3l0bHMtdW5p
dC10ZXN0ghQlIe5SE5iU3BfaVAM5qMviQpIjTTATBgNVHSUEDDAKBggrBgEFBQcD
AjALBgNVHQ8EBAMCB4AwDQYJKoZIhvcNAQELBQADggEBAHSgcJcnd4tOKHwY9fTs
ifOkTuSPz+4A8VRFjncwAvRUw3IJoT/7f6Bc+WhEIET2IER3cXGxwSEVqOemy6b6
dDhll8c+BQ0wQqhQbmDxgjqf3TjfKEKUL8pRf5P3RrJ35zhCEafmzagShe91StTV
a1XHEuR5TVbkyxRjAZULfa0wsuy8xZdf8sAuDW//pN96kO3xa6a6Wxly5KUIhnLw
Jc1BTolR7yDVtocYcpAkSpm/z7MOLAddVU8z/n+7lhKhGcCSK7JnEkjmVEHdn4/1
jeAREOKE1tqTgxMmlHPkg1zArocPeGui935P9gPrDuxlMpf+27790hoH4hppr8Yx
ky0=
-----END CERTIFICATE-----
