Certificate:
    Data:
        Version: 3 (0x2)
        Serial Number:
            29:8c:60:4c:3e:07:a0:7c:99:80:cf:70:62:17:ed:20
        Signature Algorithm: sha256WithRSAEncryption
        Issuer: CN=easytls-unit-test
        Validity
            Not Before: Feb 26 00:19:43 2022 GMT
            Not After : May 31 00:19:43 2024 GMT
        Subject: CN=c08
        Subject Public Key Info:
            Public Key Algorithm: rsaEncryption
                Public-Key: (2048 bit)
                Modulus:
                    00:9b:c6:d7:9d:a0:1f:49:09:02:3b:b0:2a:22:af:
                    f5:68:04:d6:6d:8e:47:c7:26:a2:38:ae:63:7e:87:
                    90:99:4d:57:9a:6d:de:d6:0a:36:14:f1:81:7f:fe:
                    6f:b5:6a:88:f7:83:b6:c9:20:37:b2:21:10:af:90:
                    6d:54:08:0b:5a:b3:01:a9:a3:9a:61:99:ba:f4:46:
                    9f:32:3c:c2:38:7f:12:7a:35:a8:fc:34:47:de:b1:
                    21:b2:3b:60:3d:b1:54:e8:ad:36:70:e9:b6:80:16:
                    11:da:d5:d3:5d:ea:0d:f0:d8:f6:d9:be:e5:ff:39:
                    9c:43:4b:44:96:61:6b:fb:68:34:30:09:57:19:28:
                    5a:29:56:1f:19:37:45:3d:f1:87:00:94:e1:37:a9:
                    8c:8f:de:52:5f:64:df:2b:5e:a0:b0:52:56:85:17:
                    ff:81:f6:6d:f4:9d:58:a1:23:1b:85:7a:91:44:9d:
                    a8:56:90:da:69:a9:24:d2:ef:c9:51:de:d4:eb:c1:
                    25:e0:33:7c:db:91:36:04:56:69:3d:53:ee:45:d8:
                    92:bf:a9:12:f6:97:87:0d:cb:ab:f2:3c:f5:6f:d8:
                    ed:13:a3:43:c5:2a:b0:c8:e4:4d:c8:99:87:39:31:
                    7c:3a:82:75:ce:fa:c9:bf:4f:2a:5a:b2:b8:5e:31:
                    8e:71
                Exponent: 65537 (0x10001)
        X509v3 extensions:
            X509v3 Basic Constraints: 
                CA:FALSE
            X509v3 Subject Key Identifier: 
                E9:B0:A4:1F:F0:5A:39:4A:46:E9:5B:28:FF:94:38:1A:0A:49:A6:BC
            X509v3 Authority Key Identifier: 
                keyid:7F:DB:A7:04:5F:A0:23:1F:C0:6E:CD:55:F0:15:C6:27:55:BC:80:B8
                DirName:/CN=easytls-unit-test
                serial:25:21:EE:52:13:98:94:DC:17:DA:54:03:39:A8:CB:E2:42:92:23:4D
            X509v3 Extended Key Usage: 
                TLS Web Client Authentication
            X509v3 Key Usage: 
                Digital Signature
    Signature Algorithm: sha256WithRSAEncryption
    Signature Value:
        78:18:ca:70:02:98:5b:d9:06:f8:58:25:c9:1b:4f:a7:e6:26:
        b0:76:ce:ea:6a:c7:f0:83:24:dc:ae:89:98:d9:bf:89:9a:d9:
        76:cc:d8:a1:e1:9a:07:8e:ab:46:75:07:2e:28:88:15:0b:63:
        d8:2c:3d:60:d0:56:51:b0:e4:d6:94:9a:a7:5b:f5:50:1b:e4:
        ae:65:6b:50:8a:83:3c:90:71:d8:84:97:87:6c:4a:9b:c9:07:
        74:3c:53:50:b5:c3:71:26:7f:d7:d7:9b:4c:6b:93:45:9f:eb:
        f7:ab:29:f3:51:58:f9:48:c4:e3:0c:b8:a3:3d:6e:20:2a:ed:
        d3:b8:48:1c:6d:21:16:9b:65:79:ad:78:0e:fa:cf:7f:72:c8:
        b9:a9:3e:d4:d2:a7:1e:f0:60:26:26:d2:30:aa:ca:d0:fb:a1:
        f4:5c:a7:76:3f:ac:97:f8:04:e1:86:98:89:77:44:80:90:6c:
        3d:07:15:fc:39:65:04:8e:cc:dd:7d:a7:53:6f:39:dc:2b:80:
        e4:61:f9:ba:c2:7b:0a:b0:81:b5:5d:9b:ed:d9:ae:9b:4f:a0:
        35:52:ec:68:5a:c3:4a:76:cc:1f:82:a8:e8:3f:03:9d:30:10:
        28:54:69:69:4a:d4:43:34:1b:cb:4b:f9:d3:d4:d7:70:9b:46:
        68:92:ce:dd
-----BEGIN CERTIFICATE-----
MIIDXTCCAkWgAwIBAgIQKYxgTD4HoHyZgM9wYhftIDANBgkqhkiG9w0BAQsFADAc
MRowGAYDVQQDDBFlYXN5dGxzLXVuaXQtdGVzdDAeFw0yMjAyMjYwMDE5NDNaFw0y
NDA1MzEwMDE5NDNaMA4xDDAKBgNVBAMMA2MwODCCASIwDQYJKoZIhvcNAQEBBQAD
ggEPADCCAQoCggEBAJvG152gH0kJAjuwKiKv9WgE1m2OR8cmojiuY36HkJlNV5pt
3tYKNhTxgX/+b7VqiPeDtskgN7IhEK+QbVQIC1qzAamjmmGZuvRGnzI8wjh/Eno1
qPw0R96xIbI7YD2xVOitNnDptoAWEdrV013qDfDY9tm+5f85nENLRJZha/toNDAJ
VxkoWilWHxk3RT3xhwCU4TepjI/eUl9k3yteoLBSVoUX/4H2bfSdWKEjG4V6kUSd
qFaQ2mmpJNLvyVHe1OvBJeAzfNuRNgRWaT1T7kXYkr+pEvaXhw3Lq/I89W/Y7ROj
Q8UqsMjkTciZhzkxfDqCdc76yb9PKlqyuF4xjnECAwEAAaOBqDCBpTAJBgNVHRME
AjAAMB0GA1UdDgQWBBTpsKQf8Fo5SkbpWyj/lDgaCkmmvDBXBgNVHSMEUDBOgBR/
26cEX6AjH8BuzVXwFcYnVbyAuKEgpB4wHDEaMBgGA1UEAwwRZWFzeXRscy11bml0
LXRlc3SCFCUh7lITmJTcF9pUAzmoy+JCkiNNMBMGA1UdJQQMMAoGCCsGAQUFBwMC
MAsGA1UdDwQEAwIHgDANBgkqhkiG9w0BAQsFAAOCAQEAeBjKcAKYW9kG+FglyRtP
p+YmsHbO6mrH8IMk3K6JmNm/iZrZdszYoeGaB46rRnUHLiiIFQtj2Cw9YNBWUbDk
1pSap1v1UBvkrmVrUIqDPJBx2ISXh2xKm8kHdDxTULXDcSZ/19ebTGuTRZ/r96sp
81FY+UjE4wy4oz1uICrt07hIHG0hFptlea14DvrPf3LIuak+1NKnHvBgJibSMKrK
0Puh9Fyndj+sl/gE4YaYiXdEgJBsPQcV/DllBI7M3X2nU2853CuA5GH5usJ7CrCB
tV2b7dmum0+gNVLsaFrDSnbMH4Ko6D8DnTAQKFRpaUrUQzQby0v509TXcJtGaJLO
3Q==
-----END CERTIFICATE-----
