Certificate:
    Data:
        Version: 3 (0x2)
        Serial Number:
            60:ab:97:ac:d4:55:ac:24:90:9e:c9:b6:0a:bb:2f:df
        Signature Algorithm: sha256WithRSAEncryption
        Issuer: CN=easytls-unit-test
        Validity
            Not Before: Feb 26 00:19:10 2022 GMT
            Not After : May 31 00:19:10 2024 GMT
        Subject: CN=c10
        Subject Public Key Info:
            Public Key Algorithm: rsaEncryption
                Public-Key: (2048 bit)
                Modulus:
                    00:aa:06:fa:b5:f0:6c:07:04:95:64:1b:3c:c0:ee:
                    75:d1:4c:d2:2c:05:b0:6c:51:5d:25:99:fc:16:e0:
                    de:bb:ca:f1:e8:3c:72:0e:af:7d:d6:11:19:df:8b:
                    17:51:bc:0c:bb:e6:dc:6e:05:e6:aa:af:c6:d2:f7:
                    bb:af:12:36:86:7c:ea:0e:e0:86:88:8d:24:87:c2:
                    03:1c:65:7f:2e:36:72:43:62:84:8a:c9:54:89:57:
                    0e:c4:7d:88:f5:8f:06:4d:f0:5c:1d:ac:b1:9a:fa:
                    d6:77:41:ab:4a:db:90:d8:27:4b:15:f6:75:c2:d2:
                    97:32:22:9e:e7:11:24:1c:b3:1f:10:c6:97:c5:61:
                    77:08:ed:97:34:d7:bb:5b:1a:0f:9d:f5:33:08:29:
                    e4:3f:73:d5:64:15:ca:3c:32:42:3a:b7:e7:c3:a3:
                    3e:5e:1e:e3:f8:f8:26:0b:1a:6b:f3:47:c5:cf:6f:
                    12:d2:e9:f3:18:92:5b:6a:df:33:03:74:aa:30:fb:
                    93:90:14:50:1f:48:b0:79:d8:26:27:78:f4:d7:df:
                    70:f6:ed:ed:41:6c:c6:c5:f5:93:d1:84:96:66:d4:
                    40:ae:d3:9e:8b:bd:af:09:a8:61:e6:bb:65:5c:7b:
                    78:7c:c4:7d:68:a4:c4:04:a0:26:10:d8:02:15:7a:
                    fd:3d
                Exponent: 65537 (0x10001)
        X509v3 extensions:
            X509v3 Basic Constraints: 
                CA:FALSE
            X509v3 Subject Key Identifier: 
                C3:A3:C2:23:9E:C9:43:9B:EC:9F:16:E4:44:32:F1:05:E7:64:5D:C5
            X509v3 Authority Key Identifier: 
                keyid:7F:DB:A7:04:5F:A0:23:1F:C0:6E:CD:55:F0:15:C6:27:55:BC:80:B8
                DirName:/CN=easytls-unit-test
                serial:25:21:EE:52:13:98:94:DC:17:DA:54:03:39:A8:CB:E2:42:92:23:4D
            X509v3 Extended Key Usage: 
                TLS Web Client Authentication
            X509v3 Key Usage: 
                Digital Signature
    Signature Algorithm: sha256WithRSAEncryption
    Signature Value:
        73:62:12:c3:c8:5c:82:3f:7b:8f:98:78:dc:b8:c8:0f:bf:58:
        08:b3:8b:82:03:38:1b:74:97:d0:9c:e2:64:02:b8:8e:81:03:
        79:a9:5d:ee:93:67:67:32:0f:67:8b:6e:e3:7d:23:3e:0f:34:
        02:d9:5f:10:94:dc:d7:54:8d:ab:f5:6d:aa:a3:37:8e:5a:16:
        77:76:31:96:62:1d:a9:57:5f:5a:01:45:72:09:c9:ed:00:4e:
        29:30:1d:05:5d:e2:10:99:33:b6:a0:14:41:2c:e6:b1:0c:3a:
        09:59:13:69:21:0b:42:a7:73:ac:f9:70:f5:b0:73:14:bc:2f:
        91:80:bd:29:a3:99:aa:b0:92:23:08:71:47:71:ff:65:9d:60:
        ae:ae:2c:52:d1:89:a1:31:dd:d8:5e:90:72:ce:84:11:7b:e8:
        c6:f8:77:b3:44:ec:c8:5d:47:87:f3:45:f2:9a:8c:51:34:18:
        ac:e2:00:9a:28:58:e5:4d:b7:0c:7e:ec:ef:45:87:ce:63:4c:
        4b:28:4c:75:91:f0:10:9f:7a:2a:e6:bb:03:01:a4:38:cc:71:
        71:a1:6d:35:20:96:81:9e:2e:82:ad:3e:f1:ca:72:9c:af:4e:
        00:8f:f0:a9:95:f5:79:fd:34:58:d6:d7:94:20:d8:c7:43:57:
        8a:1b:15:bd
-----BEGIN CERTIFICATE-----
MIIDXTCCAkWgAwIBAgIQYKuXrNRVrCSQnsm2Crsv3zANBgkqhkiG9w0BAQsFADAc
MRowGAYDVQQDDBFlYXN5dGxzLXVuaXQtdGVzdDAeFw0yMjAyMjYwMDE5MTBaFw0y
NDA1MzEwMDE5MTBaMA4xDDAKBgNVBAMMA2MxMDCCASIwDQYJKoZIhvcNAQEBBQAD
ggEPADCCAQoCggEBAKoG+rXwbAcElWQbPMDuddFM0iwFsGxRXSWZ/Bbg3rvK8eg8
cg6vfdYRGd+LF1G8DLvm3G4F5qqvxtL3u68SNoZ86g7ghoiNJIfCAxxlfy42ckNi
hIrJVIlXDsR9iPWPBk3wXB2ssZr61ndBq0rbkNgnSxX2dcLSlzIinucRJByzHxDG
l8VhdwjtlzTXu1saD531Mwgp5D9z1WQVyjwyQjq358OjPl4e4/j4Jgsaa/NHxc9v
EtLp8xiSW2rfMwN0qjD7k5AUUB9IsHnYJid49NffcPbt7UFsxsX1k9GElmbUQK7T
nou9rwmoYea7ZVx7eHzEfWikxASgJhDYAhV6/T0CAwEAAaOBqDCBpTAJBgNVHRME
AjAAMB0GA1UdDgQWBBTDo8IjnslDm+yfFuREMvEF52RdxTBXBgNVHSMEUDBOgBR/
26cEX6AjH8BuzVXwFcYnVbyAuKEgpB4wHDEaMBgGA1UEAwwRZWFzeXRscy11bml0
LXRlc3SCFCUh7lITmJTcF9pUAzmoy+JCkiNNMBMGA1UdJQQMMAoGCCsGAQUFBwMC
MAsGA1UdDwQEAwIHgDANBgkqhkiG9w0BAQsFAAOCAQEAc2ISw8hcgj97j5h43LjI
D79YCLOLggM4G3SX0JziZAK4joEDeald7pNnZzIPZ4tu430jPg80AtlfEJTc11SN
q/VtqqM3jloWd3YxlmIdqVdfWgFFcgnJ7QBOKTAdBV3iEJkztqAUQSzmsQw6CVkT
aSELQqdzrPlw9bBzFLwvkYC9KaOZqrCSIwhxR3H/ZZ1grq4sUtGJoTHd2F6Qcs6E
EXvoxvh3s0TsyF1Hh/NF8pqMUTQYrOIAmihY5U23DH7s70WHzmNMSyhMdZHwEJ96
Kua7AwGkOMxxcaFtNSCWgZ4ugq0+8cpynK9OAI/wqZX1ef00WNbXlCDYx0NXihsV
vQ==
-----END CERTIFICATE-----
