Certificate:
    Data:
        Version: 3 (0x2)
        Serial Number:
            a8:bf:88:dc:92:4c:3f:38:45:43:41:5d:bb:25:8b:ce
        Signature Algorithm: sha256WithRSAEncryption
        Issuer: CN=easytls-unit-test
        Validity
            Not Before: Feb 26 00:08:12 2022 GMT
            Not After : May 31 00:08:12 2024 GMT
        Subject: CN=c03
        Subject Public Key Info:
            Public Key Algorithm: rsaEncryption
                Public-Key: (2048 bit)
                Modulus:
                    00:bc:59:71:5b:2a:9e:d7:35:1d:2e:13:3a:9d:6c:
                    be:37:bf:0f:8a:8b:34:eb:c1:d5:69:47:77:05:59:
                    53:c0:26:76:95:2f:38:d6:a8:25:e0:a6:77:2f:60:
                    1f:c7:6a:67:f7:ea:2a:d7:a0:6e:62:ef:31:f2:90:
                    38:32:5a:2b:de:da:45:2e:80:22:c1:2e:78:bf:61:
                    b4:7b:ba:7f:27:96:3b:97:46:bc:0a:32:1f:af:d1:
                    26:55:63:c3:3c:22:88:04:66:8e:bb:49:1b:70:99:
                    f2:29:49:5f:ba:89:e0:aa:13:39:d7:b6:91:aa:a4:
                    ee:96:27:b5:19:05:af:b4:dc:fd:d5:37:5c:d8:c6:
                    09:c0:73:fc:5e:16:31:76:dd:bb:e6:d6:35:fd:8b:
                    df:e8:6f:65:f6:c1:cc:46:63:20:fd:81:cb:a2:fc:
                    73:74:87:c8:a0:4d:c5:8c:56:b2:60:31:84:71:ed:
                    cf:9a:fb:5f:ac:e7:e4:fb:4a:35:56:1f:8a:06:8a:
                    08:56:f5:09:be:e4:53:a8:ad:d6:a0:0b:7d:56:35:
                    86:51:40:e0:83:05:90:ac:f5:32:a6:fb:fb:14:39:
                    66:44:a3:38:d7:58:27:76:33:9d:89:05:43:99:88:
                    d8:c3:9e:0b:69:4a:af:33:f2:3a:57:66:dc:2b:1e:
                    e1:e7
                Exponent: 65537 (0x10001)
        X509v3 extensions:
            X509v3 Basic Constraints: 
                CA:FALSE
            X509v3 Subject Key Identifier: 
                74:5B:52:A3:2F:06:15:B6:8F:D3:16:AF:B7:B9:1F:43:91:84:4A:79
            X509v3 Authority Key Identifier: 
                keyid:0E:E8:57:E7:5B:DF:A7:1A:79:64:53:89:BA:45:32:9D:B2:0C:6D:F2
                DirName:/CN=easytls-unit-test
                serial:49:7D:81:43:F9:79:34:B1:63:E8:C1:3D:08:93:3C:BE:36:CB:4D:7F
            X509v3 Extended Key Usage: 
                TLS Web Client Authentication
            X509v3 Key Usage: 
                Digital Signature
    Signature Algorithm: sha256WithRSAEncryption
    Signature Value:
        0d:81:69:47:a1:1b:d3:de:bc:60:6f:79:64:68:31:8a:12:ba:
        32:2f:6e:82:4c:b0:c0:04:fc:c2:8a:a5:1b:04:89:bf:55:7a:
        70:92:ea:31:13:b2:78:79:e4:15:51:1c:e8:a6:57:ce:ef:ce:
        85:43:90:b3:30:74:4c:ef:e8:22:82:0e:03:c9:61:9a:97:da:
        72:a5:a5:c9:94:8f:98:b9:a9:76:45:29:af:69:bb:e8:5f:6a:
        53:fe:e2:83:a4:7a:db:85:29:65:94:fb:a5:dc:f4:7e:51:08:
        3a:24:d4:d7:f2:6e:c9:c9:ac:3c:aa:b9:db:36:65:1b:65:bb:
        1c:cd:59:8b:0b:fe:98:0b:7c:84:b1:f0:de:80:b6:6d:a7:cf:
        30:4e:d9:ca:da:10:9f:48:99:56:a3:c4:e2:a9:12:f7:bb:3a:
        8e:33:9b:ee:92:1b:44:72:73:ff:ec:62:f7:9e:94:a5:24:0a:
        5d:69:2e:97:b8:68:2f:85:c5:f5:31:f1:0b:95:fd:8b:52:72:
        ea:31:73:f9:1c:67:09:77:60:f9:ae:5e:2d:8e:56:81:da:80:
        90:f4:9e:c2:a0:9b:05:e5:59:67:80:d0:d6:17:aa:1d:d3:da:
        54:1a:e7:06:d3:ec:29:6d:6d:71:e3:03:8e:43:6d:f1:60:de:
        1a:c7:bb:38
-----BEGIN CERTIFICATE-----
MIIDXjCCAkagAwIBAgIRAKi/iNySTD84RUNBXbsli84wDQYJKoZIhvcNAQELBQAw
HDEaMBgGA1UEAwwRZWFzeXRscy11bml0LXRlc3QwHhcNMjIwMjI2MDAwODEyWhcN
MjQwNTMxMDAwODEyWjAOMQwwCgYDVQQDDANjMDMwggEiMA0GCSqGSIb3DQEBAQUA
A4IBDwAwggEKAoIBAQC8WXFbKp7XNR0uEzqdbL43vw+KizTrwdVpR3cFWVPAJnaV
LzjWqCXgpncvYB/Hamf36irXoG5i7zHykDgyWive2kUugCLBLni/YbR7un8nljuX
RrwKMh+v0SZVY8M8IogEZo67SRtwmfIpSV+6ieCqEznXtpGqpO6WJ7UZBa+03P3V
N1zYxgnAc/xeFjF23bvm1jX9i9/ob2X2wcxGYyD9gcui/HN0h8igTcWMVrJgMYRx
7c+a+1+s5+T7SjVWH4oGighW9Qm+5FOordagC31WNYZRQOCDBZCs9TKm+/sUOWZE
ozjXWCd2M52JBUOZiNjDngtpSq8z8jpXZtwrHuHnAgMBAAGjgagwgaUwCQYDVR0T
BAIwADAdBgNVHQ4EFgQUdFtSoy8GFbaP0xavt7kfQ5GESnkwVwYDVR0jBFAwToAU
DuhX51vfpxp5ZFOJukUynbIMbfKhIKQeMBwxGjAYBgNVBAMMEWVhc3l0bHMtdW5p
dC10ZXN0ghRJfYFD+Xk0sWPowT0Ikzy+NstNfzATBgNVHSUEDDAKBggrBgEFBQcD
AjALBgNVHQ8EBAMCB4AwDQYJKoZIhvcNAQELBQADggEBAA2BaUehG9PevGBveWRo
MYoSujIvboJMsMAE/MKKpRsEib9VenCS6jETsnh55BVRHOimV87vzoVDkLMwdEzv
6CKCDgPJYZqX2nKlpcmUj5i5qXZFKa9pu+hfalP+4oOketuFKWWU+6Xc9H5RCDok
1NfybsnJrDyquds2ZRtluxzNWYsL/pgLfISx8N6Atm2nzzBO2craEJ9ImVajxOKp
Eve7Oo4zm+6SG0Ryc//sYveelKUkCl1pLpe4aC+FxfUx8QuV/YtScuoxc/kcZwl3
YPmuXi2OVoHagJD0nsKgmwXlWWeA0NYXqh3T2lQa5wbT7CltbXHjA45DbfFg3hrH
uzg=
-----END CERTIFICATE-----
