Certificate:
    Data:
        Version: 3 (0x2)
        Serial Number:
            0c:94:c7:89:cb:9f:bf:e4:b2:f4:ea:f5:15:ec:dd:e6
        Signature Algorithm: sha256WithRSAEncryption
        Issuer: CN=easytls-unit-test
        Validity
            Not Before: Feb 26 00:08:08 2022 GMT
            Not After : May 31 00:08:08 2024 GMT
        Subject: CN=s02
        Subject Public Key Info:
            Public Key Algorithm: rsaEncryption
                Public-Key: (2048 bit)
                Modulus:
                    00:8a:18:27:9a:05:e6:68:f3:1a:c2:d8:ed:d4:dc:
                    c7:48:cb:c6:d5:29:fa:b3:c1:50:62:cb:18:28:ce:
                    2a:c1:76:08:f6:f5:b2:f9:6a:f2:a5:37:a0:b9:1b:
                    fe:2c:5c:df:56:e4:8e:56:a9:6c:73:52:15:3b:5e:
                    12:cf:50:d1:d7:7a:b0:fe:bf:7a:30:97:1f:56:6e:
                    50:f5:7a:74:05:1f:92:40:db:fb:7e:2f:6d:b4:2f:
                    a3:02:2e:69:59:12:dd:29:7b:0e:64:5b:3e:2e:da:
                    ce:d3:27:be:48:0b:a3:85:b9:01:99:35:e1:40:63:
                    82:0c:7c:ee:9f:1c:3e:9e:28:cf:ab:55:72:62:d6:
                    fc:a3:b8:97:31:5c:0a:3c:53:f5:8f:a5:63:db:42:
                    93:83:ad:20:ba:57:7b:23:7f:b0:13:49:d9:7d:7f:
                    3b:08:66:dc:97:74:23:17:4c:88:ba:c9:4e:5f:ca:
                    6e:69:56:30:ee:be:dd:74:d3:d2:30:7e:19:f0:8e:
                    3c:51:14:ff:70:40:69:94:70:74:38:d1:ff:31:e3:
                    62:af:85:40:68:c3:f3:15:cd:70:06:42:aa:1e:b1:
                    6d:fe:6c:44:71:d5:37:d2:1e:42:1e:54:9d:ae:f6:
                    e9:dd:78:a2:5f:40:ce:c4:ca:78:f3:76:fd:f1:1b:
                    36:69
                Exponent: 65537 (0x10001)
        X509v3 extensions:
            X509v3 Basic Constraints: 
                CA:FALSE
            X509v3 Subject Key Identifier: 
                BE:DE:19:65:47:A9:84:26:32:2D:6B:38:FF:D0:2A:14:07:B1:9F:75
            X509v3 Authority Key Identifier: 
                keyid:0E:E8:57:E7:5B:DF:A7:1A:79:64:53:89:BA:45:32:9D:B2:0C:6D:F2
                DirName:/CN=easytls-unit-test
                serial:49:7D:81:43:F9:79:34:B1:63:E8:C1:3D:08:93:3C:BE:36:CB:4D:7F
            X509v3 Extended Key Usage: 
                TLS Web Server Authentication
            X509v3 Key Usage: 
                Digital Signature, Key Encipherment
            X509v3 Subject Alternative Name: 
                DNS:s02
    Signature Algorithm: sha256WithRSAEncryption
    Signature Value:
        1d:e3:60:56:88:9c:0b:08:18:9b:a1:5e:78:08:f8:0b:b2:27:
        c7:71:91:be:58:38:e7:77:be:dc:1f:76:f1:75:cf:29:20:f6:
        be:7f:1f:2c:b3:b2:b8:21:40:52:56:10:31:47:6d:51:7c:20:
        cc:b4:5d:1d:9c:97:9e:a4:13:72:69:72:f3:74:2d:5f:ca:87:
        25:17:47:f9:80:66:94:f0:e2:96:c7:07:41:5b:b6:7d:a1:db:
        7a:c1:0d:c6:83:d4:91:bb:6a:ef:63:f0:27:07:43:fe:d7:6b:
        6e:ab:71:c2:d3:52:36:61:55:c7:d0:d8:8d:52:c7:aa:8b:b2:
        10:3a:91:78:dd:0e:e6:25:ec:f7:dc:e3:a8:bc:eb:fa:05:46:
        f0:61:57:f5:10:41:e0:f4:4c:b4:fa:2e:90:40:36:89:ce:bd:
        fd:6d:90:94:9f:61:4e:f0:79:9b:2d:40:de:6f:db:a4:c2:c8:
        89:e3:36:ae:6b:43:5e:f8:07:4a:2d:24:1d:2c:4a:c5:62:a4:
        32:56:05:d8:8b:f1:66:8a:67:ec:98:82:66:b6:b3:e1:33:18:
        28:61:1d:b6:22:96:fe:b7:b1:9b:4a:f8:ff:f3:85:7a:e3:6d:
        92:ec:0e:e1:bc:f6:38:b9:79:51:2d:b3:28:b5:21:c1:0e:a7:
        f3:30:ca:64
-----BEGIN CERTIFICATE-----
MIIDbTCCAlWgAwIBAgIQDJTHicufv+Sy9Or1Fezd5jANBgkqhkiG9w0BAQsFADAc
MRowGAYDVQQDDBFlYXN5dGxzLXVuaXQtdGVzdDAeFw0yMjAyMjYwMDA4MDhaFw0y
NDA1MzEwMDA4MDhaMA4xDDAKBgNVBAMMA3MwMjCCASIwDQYJKoZIhvcNAQEBBQAD
ggEPADCCAQoCggEBAIoYJ5oF5mjzGsLY7dTcx0jLxtUp+rPBUGLLGCjOKsF2CPb1
svlq8qU3oLkb/ixc31bkjlapbHNSFTteEs9Q0dd6sP6/ejCXH1ZuUPV6dAUfkkDb
+34vbbQvowIuaVkS3Sl7DmRbPi7aztMnvkgLo4W5AZk14UBjggx87p8cPp4oz6tV
cmLW/KO4lzFcCjxT9Y+lY9tCk4OtILpXeyN/sBNJ2X1/Owhm3Jd0IxdMiLrJTl/K
bmlWMO6+3XTT0jB+GfCOPFEU/3BAaZRwdDjR/zHjYq+FQGjD8xXNcAZCqh6xbf5s
RHHVN9IeQh5Una726d14ol9AzsTKePN2/fEbNmkCAwEAAaOBuDCBtTAJBgNVHRME
AjAAMB0GA1UdDgQWBBS+3hllR6mEJjItazj/0CoUB7GfdTBXBgNVHSMEUDBOgBQO
6FfnW9+nGnlkU4m6RTKdsgxt8qEgpB4wHDEaMBgGA1UEAwwRZWFzeXRscy11bml0
LXRlc3SCFEl9gUP5eTSxY+jBPQiTPL42y01/MBMGA1UdJQQMMAoGCCsGAQUFBwMB
MAsGA1UdDwQEAwIFoDAOBgNVHREEBzAFggNzMDIwDQYJKoZIhvcNAQELBQADggEB
AB3jYFaInAsIGJuhXngI+AuyJ8dxkb5YOOd3vtwfdvF1zykg9r5/HyyzsrghQFJW
EDFHbVF8IMy0XR2cl56kE3JpcvN0LV/KhyUXR/mAZpTw4pbHB0Fbtn2h23rBDcaD
1JG7au9j8CcHQ/7Xa26rccLTUjZhVcfQ2I1Sx6qLshA6kXjdDuYl7Pfc46i86/oF
RvBhV/UQQeD0TLT6LpBANonOvf1tkJSfYU7weZstQN5v26TCyInjNq5rQ174B0ot
JB0sSsVipDJWBdiL8WaKZ+yYgma2s+EzGChhHbYilv63sZtK+P/zhXrjbZLsDuG8
9ji5eVEtsyi1IcEOp/MwymQ=
-----END CERTIFICATE-----
