Certificate:
    Data:
        Version: 3 (0x2)
        Serial Number:
            1d:eb:d4:02:ba:73:a3:2f:91:2b:20:53:4e:b0:54:85
        Signature Algorithm: sha256WithRSAEncryption
        Issuer: CN=easytls-unit-test
        Validity
            Not Before: Feb 26 00:08:15 2022 GMT
            Not After : May 31 00:08:15 2024 GMT
        Subject: CN=c10
        Subject Public Key Info:
            Public Key Algorithm: rsaEncryption
                Public-Key: (2048 bit)
                Modulus:
                    00:c2:71:2f:c8:74:57:1d:fb:61:2f:47:8d:d2:f9:
                    87:9e:80:c0:05:f0:6c:e7:e3:c3:dd:4d:23:1b:92:
                    3e:83:8c:85:13:31:5b:c1:ce:e5:05:09:e5:2b:0c:
                    d4:a6:94:be:f8:7b:19:c7:c8:28:dc:8d:74:93:35:
                    a2:d2:e9:76:d1:ca:bb:12:fc:9d:d0:dc:79:f6:3c:
                    b7:47:be:94:86:7f:9f:1e:8a:24:aa:83:47:9d:2a:
                    09:67:8d:8a:5d:86:f1:5f:14:d3:16:c5:47:3b:4f:
                    5d:52:a4:ee:04:44:b8:8e:d6:5e:98:19:65:79:5e:
                    ea:5e:bf:c4:a4:dc:10:2e:b5:9b:a0:f8:2d:b1:04:
                    45:1b:4d:06:2c:10:61:e7:fd:09:d7:bc:2f:6a:67:
                    a8:1a:ea:f9:f5:e6:ce:93:08:45:b0:1a:d7:e6:91:
                    01:7d:1f:a5:4a:c9:56:b6:b7:7e:8e:08:92:4d:27:
                    29:2f:f4:16:c9:64:c5:04:70:ad:cd:8b:6b:d9:cd:
                    56:b7:1f:c2:a3:4a:fc:d0:0a:64:81:f5:00:40:14:
                    b8:9c:e4:ef:f5:6f:db:a4:5b:71:f0:ba:9d:e5:07:
                    60:ce:d9:b8:e2:7d:ae:49:51:6f:30:6d:ca:fc:8f:
                    63:d7:06:e9:25:c0:b2:60:1d:0b:ae:ea:7c:b2:73:
                    fd:7f
                Exponent: 65537 (0x10001)
        X509v3 extensions:
            X509v3 Basic Constraints: 
                CA:FALSE
            X509v3 Subject Key Identifier: 
                53:96:65:B0:56:F2:F5:5B:E4:77:1F:B1:61:89:44:09:C3:F5:91:C3
            X509v3 Authority Key Identifier: 
                keyid:0E:E8:57:E7:5B:DF:A7:1A:79:64:53:89:BA:45:32:9D:B2:0C:6D:F2
                DirName:/CN=easytls-unit-test
                serial:49:7D:81:43:F9:79:34:B1:63:E8:C1:3D:08:93:3C:BE:36:CB:4D:7F
            X509v3 Extended Key Usage: 
                TLS Web Client Authentication
            X509v3 Key Usage: 
                Digital Signature
    Signature Algorithm: sha256WithRSAEncryption
    Signature Value:
        72:5e:ff:61:1b:80:7e:9b:11:b3:d0:4b:3b:3e:a5:d7:a8:bf:
        27:76:c5:c1:4a:9b:39:46:90:5b:c1:a9:15:4e:3c:e0:87:61:
        f7:31:77:c2:ef:f1:b7:97:8f:7d:1c:b7:fa:95:d4:5d:ab:ee:
        4f:d4:bc:5c:24:73:7d:6e:f0:68:06:01:03:19:0d:1e:3f:79:
        09:8b:57:21:63:d1:04:3a:15:6e:00:9c:ee:0a:85:a0:28:2a:
        1e:0a:0a:25:3a:f9:52:9a:ea:ed:53:1c:06:71:ab:5b:50:01:
        ea:d7:9f:f3:5a:c4:6d:be:94:32:c5:42:e1:9a:e0:cc:b4:f7:
        e6:8c:be:95:37:f7:fd:dd:e0:4a:cd:0b:7f:10:50:c6:f0:8d:
        ed:9e:4e:84:9b:c8:70:00:b0:30:23:cb:e1:82:9f:7e:52:4d:
        8c:eb:ea:9b:8d:da:29:30:75:b2:fd:1e:7a:13:46:78:97:71:
        1c:df:26:7d:bf:91:44:bd:e2:5c:2c:e7:fc:92:f4:6f:79:15:
        69:ce:7e:ef:d6:0f:be:69:17:fc:f9:9f:bf:d5:87:27:36:23:
        49:5c:a5:07:32:3a:09:36:d3:f7:08:fa:bc:f7:05:df:1e:6a:
        0a:b0:f9:84:5c:71:f3:05:01:e0:98:40:63:54:36:a8:a6:14:
        19:89:9d:db
-----BEGIN CERTIFICATE-----
MIIDXTCCAkWgAwIBAgIQHevUArpzoy+RKyBTTrBUhTANBgkqhkiG9w0BAQsFADAc
MRowGAYDVQQDDBFlYXN5dGxzLXVuaXQtdGVzdDAeFw0yMjAyMjYwMDA4MTVaFw0y
NDA1MzEwMDA4MTVaMA4xDDAKBgNVBAMMA2MxMDCCASIwDQYJKoZIhvcNAQEBBQAD
ggEPADCCAQoCggEBAMJxL8h0Vx37YS9HjdL5h56AwAXwbOfjw91NIxuSPoOMhRMx
W8HO5QUJ5SsM1KaUvvh7GcfIKNyNdJM1otLpdtHKuxL8ndDcefY8t0e+lIZ/nx6K
JKqDR50qCWeNil2G8V8U0xbFRztPXVKk7gREuI7WXpgZZXle6l6/xKTcEC61m6D4
LbEERRtNBiwQYef9Cde8L2pnqBrq+fXmzpMIRbAa1+aRAX0fpUrJVra3fo4Ikk0n
KS/0FslkxQRwrc2La9nNVrcfwqNK/NAKZIH1AEAUuJzk7/Vv26RbcfC6neUHYM7Z
uOJ9rklRbzBtyvyPY9cG6SXAsmAdC67qfLJz/X8CAwEAAaOBqDCBpTAJBgNVHRME
AjAAMB0GA1UdDgQWBBRTlmWwVvL1W+R3H7FhiUQJw/WRwzBXBgNVHSMEUDBOgBQO
6FfnW9+nGnlkU4m6RTKdsgxt8qEgpB4wHDEaMBgGA1UEAwwRZWFzeXRscy11bml0
LXRlc3SCFEl9gUP5eTSxY+jBPQiTPL42y01/MBMGA1UdJQQMMAoGCCsGAQUFBwMC
MAsGA1UdDwQEAwIHgDANBgkqhkiG9w0BAQsFAAOCAQEAcl7/YRuAfpsRs9BLOz6l
16i/J3bFwUqbOUaQW8GpFU484Idh9zF3wu/xt5ePfRy3+pXUXavuT9S8XCRzfW7w
aAYBAxkNHj95CYtXIWPRBDoVbgCc7gqFoCgqHgoKJTr5Uprq7VMcBnGrW1AB6tef
81rEbb6UMsVC4ZrgzLT35oy+lTf3/d3gSs0LfxBQxvCN7Z5OhJvIcACwMCPL4YKf
flJNjOvqm43aKTB1sv0eehNGeJdxHN8mfb+RRL3iXCzn/JL0b3kVac5+79YPvmkX
/Pmfv9WHJzYjSVylBzI6CTbT9wj6vPcF3x5qCrD5hFxx8wUB4JhAY1Q2qKYUGYmd
2w==
-----END CERTIFICATE-----
