Certificate:
    Data:
        Version: 3 (0x2)
        Serial Number:
            56:5d:61:69:9d:a6:94:cd:82:35:03:d6:e3:55:7e:c9
        Signature Algorithm: sha256WithRSAEncryption
        Issuer: CN=easytls-unit-test
        Validity
            Not Before: Feb 26 00:08:09 2022 GMT
            Not After : May 31 00:08:09 2024 GMT
        Subject: CN=s-crypt
        Subject Public Key Info:
            Public Key Algorithm: rsaEncryption
                Public-Key: (2048 bit)
                Modulus:
                    00:b6:ac:5d:7a:51:89:ba:75:d4:ee:9c:a1:90:6c:
                    b1:54:75:95:08:a3:a4:14:70:e5:22:e6:46:74:c5:
                    de:8e:cf:47:0f:75:e6:d9:b5:0f:df:68:dc:04:ca:
                    f9:1a:22:f0:28:6c:9e:1b:da:e0:79:9e:40:a7:83:
                    6b:6d:c0:ea:87:e6:43:17:4b:cf:2b:87:18:eb:d2:
                    c0:89:12:5b:a1:47:1a:50:e8:cb:c0:8e:76:86:08:
                    88:b3:05:7e:79:30:01:5d:a2:b9:1a:f8:79:02:28:
                    ee:a7:2d:61:42:17:95:b0:34:da:e3:0d:a0:87:9c:
                    d4:5c:51:4a:0d:08:0f:e0:bf:ae:bf:48:42:42:7d:
                    7a:11:dd:25:3f:87:b6:a1:e4:4e:6e:80:8e:f1:71:
                    37:93:13:17:d9:8d:e7:0a:03:7a:b9:c6:5c:54:05:
                    aa:b0:72:8f:2c:6f:9d:09:97:09:07:da:30:bd:86:
                    73:6e:48:43:20:25:b9:14:17:f7:f2:2a:b7:eb:6b:
                    71:5e:20:a6:06:33:b3:ee:db:6d:4b:c4:8e:1b:fb:
                    f2:cc:38:20:1d:9c:16:0c:3b:cf:17:12:00:3b:ac:
                    a7:26:2a:b6:88:3d:22:d9:6a:51:ff:d1:74:8f:1a:
                    93:4c:da:b8:99:95:ac:ff:fe:3f:2b:e5:c4:1a:f4:
                    ba:51
                Exponent: 65537 (0x10001)
        X509v3 extensions:
            X509v3 Basic Constraints: 
                CA:FALSE
            X509v3 Subject Key Identifier: 
                FB:33:AD:CD:2D:39:B0:FA:EC:CA:D6:F0:81:94:DF:F1:78:FB:90:12
            X509v3 Authority Key Identifier: 
                keyid:0E:E8:57:E7:5B:DF:A7:1A:79:64:53:89:BA:45:32:9D:B2:0C:6D:F2
                DirName:/CN=easytls-unit-test
                serial:49:7D:81:43:F9:79:34:B1:63:E8:C1:3D:08:93:3C:BE:36:CB:4D:7F
            X509v3 Extended Key Usage: 
                TLS Web Server Authentication
            X509v3 Key Usage: 
                Digital Signature, Key Encipherment
            X509v3 Subject Alternative Name: 
                DNS:s-crypt
    Signature Algorithm: sha256WithRSAEncryption
    Signature Value:
        67:5c:eb:b6:f0:2d:29:8a:79:4c:9c:59:8e:3c:b8:35:3f:a3:
        30:e3:b8:c2:0f:a3:e6:90:b5:bc:77:d4:18:22:2a:39:bb:76:
        be:8a:63:d2:29:4a:f7:49:71:0e:99:c0:23:32:44:81:af:25:
        90:a8:ea:51:c7:90:3d:01:bc:3b:c2:d3:73:68:fb:83:fd:bf:
        21:75:41:7f:20:08:30:89:c8:40:ce:b1:12:b5:e9:5b:05:0c:
        fd:87:67:3d:ae:3a:55:45:16:b4:18:58:33:d6:2f:02:af:a3:
        3e:24:39:40:be:c7:92:f6:f6:9a:8a:d8:c3:4b:0d:23:83:72:
        48:bc:73:ea:c2:1a:e5:8b:36:ca:a4:6d:57:00:00:9e:92:f4:
        0e:7c:5c:5b:61:5f:2c:1f:78:cc:a3:69:0c:5a:a2:08:f5:71:
        57:a5:a6:45:3c:aa:12:39:36:4a:88:3b:e9:94:b1:56:2c:f0:
        66:54:e6:86:27:c4:84:3e:d5:6c:37:49:ca:1f:19:74:8d:88:
        49:be:af:93:64:b7:dc:cb:54:30:85:d8:30:d6:11:06:18:5a:
        9f:89:73:13:b8:60:3f:b6:46:c9:06:20:d3:58:a3:6b:fb:5b:
        8a:ff:96:60:34:77:fb:24:26:62:62:a5:f8:ac:6c:34:1b:9e:
        05:00:cf:f8
-----BEGIN CERTIFICATE-----
MIIDdTCCAl2gAwIBAgIQVl1haZ2mlM2CNQPW41V+yTANBgkqhkiG9w0BAQsFADAc
MRowGAYDVQQDDBFlYXN5dGxzLXVuaXQtdGVzdDAeFw0yMjAyMjYwMDA4MDlaFw0y
NDA1MzEwMDA4MDlaMBIxEDAOBgNVBAMMB3MtY3J5cHQwggEiMA0GCSqGSIb3DQEB
AQUAA4IBDwAwggEKAoIBAQC2rF16UYm6ddTunKGQbLFUdZUIo6QUcOUi5kZ0xd6O
z0cPdebZtQ/faNwEyvkaIvAobJ4b2uB5nkCng2ttwOqH5kMXS88rhxjr0sCJEluh
RxpQ6MvAjnaGCIizBX55MAFdorka+HkCKO6nLWFCF5WwNNrjDaCHnNRcUUoNCA/g
v66/SEJCfXoR3SU/h7ah5E5ugI7xcTeTExfZjecKA3q5xlxUBaqwco8sb50JlwkH
2jC9hnNuSEMgJbkUF/fyKrfra3FeIKYGM7Pu221LxI4b+/LMOCAdnBYMO88XEgA7
rKcmKraIPSLZalH/0XSPGpNM2riZlaz//j8r5cQa9LpRAgMBAAGjgbwwgbkwCQYD
VR0TBAIwADAdBgNVHQ4EFgQU+zOtzS05sPrsytbwgZTf8Xj7kBIwVwYDVR0jBFAw
ToAUDuhX51vfpxp5ZFOJukUynbIMbfKhIKQeMBwxGjAYBgNVBAMMEWVhc3l0bHMt
dW5pdC10ZXN0ghRJfYFD+Xk0sWPowT0Ikzy+NstNfzATBgNVHSUEDDAKBggrBgEF
BQcDATALBgNVHQ8EBAMCBaAwEgYDVR0RBAswCYIHcy1jcnlwdDANBgkqhkiG9w0B
AQsFAAOCAQEAZ1zrtvAtKYp5TJxZjjy4NT+jMOO4wg+j5pC1vHfUGCIqObt2vopj
0ilK90lxDpnAIzJEga8lkKjqUceQPQG8O8LTc2j7g/2/IXVBfyAIMInIQM6xErXp
WwUM/YdnPa46VUUWtBhYM9YvAq+jPiQ5QL7Hkvb2morYw0sNI4NySLxz6sIa5Ys2
yqRtVwAAnpL0DnxcW2FfLB94zKNpDFqiCPVxV6WmRTyqEjk2Sog76ZSxVizwZlTm
hifEhD7VbDdJyh8ZdI2ISb6vk2S33MtUMIXYMNYRBhhan4lzE7hgP7ZGyQYg01ij
a/tbiv+WYDR3+yQmYmKl+KxsNBueBQDP+A==
-----END CERTIFICATE-----
