Certificate:
    Data:
        Version: 3 (0x2)
        Serial Number:
            63:e9:60:d3:d2:46:c4:1f:e5:68:c8:b1:a5:dd:b1:3e
        Signature Algorithm: sha256WithRSAEncryption
        Issuer: CN=easytls-unit-test
        Validity
            Not Before: Feb 26 00:08:48 2022 GMT
            Not After : May 31 00:08:48 2024 GMT
        Subject: CN=c08
        Subject Public Key Info:
            Public Key Algorithm: rsaEncryption
                Public-Key: (2048 bit)
                Modulus:
                    00:ab:b0:53:5a:18:1f:25:da:33:c4:78:be:21:82:
                    44:a1:f8:24:0f:2d:be:bb:3b:2b:98:7b:72:68:0b:
                    96:45:87:90:16:06:29:e5:ec:c7:df:7e:7d:08:a6:
                    dc:6d:59:0a:97:bd:91:33:3c:46:0c:33:48:02:72:
                    96:6a:dc:f6:15:ee:db:af:89:15:7c:4c:00:78:9c:
                    64:53:33:c8:ff:15:fc:51:3a:6b:1c:63:39:8a:f6:
                    a1:f1:0b:ba:ea:8d:55:b3:12:81:a1:50:af:90:a3:
                    21:ac:ab:fc:44:24:6a:1c:ac:13:11:e7:24:78:ed:
                    59:b2:33:ad:05:71:f5:95:5b:26:45:7e:7d:b4:7d:
                    46:b1:0e:ab:20:38:66:3c:61:60:83:b2:b1:07:a4:
                    b5:ea:59:35:eb:23:cd:72:81:4b:65:7d:e2:19:a3:
                    96:77:8c:dd:e1:5f:9b:9f:54:90:b2:6d:5e:21:87:
                    c3:83:a8:87:98:18:b5:dc:d3:f0:f1:2b:67:ef:7f:
                    7d:c4:fa:b6:6b:2e:e3:6e:e3:7f:93:89:34:31:73:
                    49:90:41:b2:bd:b3:07:73:b1:ec:cb:f2:7d:eb:0e:
                    ff:e9:62:ec:13:77:9b:2c:ed:ee:af:88:f8:1f:b0:
                    2c:66:67:19:01:32:f9:4d:ef:e6:70:58:e8:78:a3:
                    40:37
                Exponent: 65537 (0x10001)
        X509v3 extensions:
            X509v3 Basic Constraints: 
                CA:FALSE
            X509v3 Subject Key Identifier: 
                EC:43:4B:5A:C7:43:55:64:A1:1E:72:79:7F:45:17:C2:A9:A0:71:7A
            X509v3 Authority Key Identifier: 
                keyid:0E:E8:57:E7:5B:DF:A7:1A:79:64:53:89:BA:45:32:9D:B2:0C:6D:F2
                DirName:/CN=easytls-unit-test
                serial:49:7D:81:43:F9:79:34:B1:63:E8:C1:3D:08:93:3C:BE:36:CB:4D:7F
            X509v3 Extended Key Usage: 
                TLS Web Client Authentication
            X509v3 Key Usage: 
                Digital Signature
    Signature Algorithm: sha256WithRSAEncryption
    Signature Value:
        87:4d:91:97:30:6c:26:7f:6b:ff:81:75:6a:0c:6e:5e:dc:e1:
        39:7c:2f:f2:bf:82:70:bf:b9:af:db:e7:08:43:11:ca:fe:fb:
        50:cd:e3:38:4d:2d:23:18:44:ed:49:07:47:7d:43:d8:72:74:
        73:d5:49:b1:b1:ed:61:8e:fd:d2:a7:66:4b:b8:5f:f7:4c:25:
        94:a4:6c:40:db:c5:30:c2:bb:14:d2:85:18:5d:a5:6b:0c:5e:
        e5:d3:d9:53:15:ab:40:b1:fa:5b:d9:d2:b6:00:63:2d:c2:2f:
        07:ec:64:15:d8:bb:fd:22:62:d1:b4:11:0b:b0:f7:23:05:cf:
        7d:b4:04:cb:b9:f7:e4:b3:61:b2:0f:1e:dd:30:9a:28:fa:4b:
        d6:ab:a9:73:03:b1:ae:ec:b7:f3:b9:00:56:46:3f:a0:59:40:
        33:14:7f:77:49:e9:68:32:1f:7f:bb:11:c2:2d:07:e0:0b:7a:
        19:57:43:76:34:3f:a5:6c:c8:ea:4d:2a:72:66:c4:df:bd:cd:
        8d:5f:c1:52:59:84:3b:e2:08:52:a9:58:46:da:42:90:46:2a:
        77:cf:10:0f:d9:00:dd:91:fe:ac:58:8d:f1:48:fa:cf:dd:5f:
        db:58:da:39:13:a4:b6:ec:f2:a3:84:1b:03:00:c5:81:05:9a:
        96:04:ab:c8
-----BEGIN CERTIFICATE-----
MIIDXTCCAkWgAwIBAgIQY+lg09JGxB/laMixpd2xPjANBgkqhkiG9w0BAQsFADAc
MRowGAYDVQQDDBFlYXN5dGxzLXVuaXQtdGVzdDAeFw0yMjAyMjYwMDA4NDhaFw0y
NDA1MzEwMDA4NDhaMA4xDDAKBgNVBAMMA2MwODCCASIwDQYJKoZIhvcNAQEBBQAD
ggEPADCCAQoCggEBAKuwU1oYHyXaM8R4viGCRKH4JA8tvrs7K5h7cmgLlkWHkBYG
KeXsx99+fQim3G1ZCpe9kTM8RgwzSAJylmrc9hXu26+JFXxMAHicZFMzyP8V/FE6
axxjOYr2ofELuuqNVbMSgaFQr5CjIayr/EQkahysExHnJHjtWbIzrQVx9ZVbJkV+
fbR9RrEOqyA4ZjxhYIOysQektepZNesjzXKBS2V94hmjlneM3eFfm59UkLJtXiGH
w4Ooh5gYtdzT8PErZ+9/fcT6tmsu427jf5OJNDFzSZBBsr2zB3Ox7MvyfesO/+li
7BN3myzt7q+I+B+wLGZnGQEy+U3v5nBY6HijQDcCAwEAAaOBqDCBpTAJBgNVHRME
AjAAMB0GA1UdDgQWBBTsQ0tax0NVZKEecnl/RRfCqaBxejBXBgNVHSMEUDBOgBQO
6FfnW9+nGnlkU4m6RTKdsgxt8qEgpB4wHDEaMBgGA1UEAwwRZWFzeXRscy11bml0
LXRlc3SCFEl9gUP5eTSxY+jBPQiTPL42y01/MBMGA1UdJQQMMAoGCCsGAQUFBwMC
MAsGA1UdDwQEAwIHgDANBgkqhkiG9w0BAQsFAAOCAQEAh02RlzBsJn9r/4F1agxu
XtzhOXwv8r+CcL+5r9vnCEMRyv77UM3jOE0tIxhE7UkHR31D2HJ0c9VJsbHtYY79
0qdmS7hf90wllKRsQNvFMMK7FNKFGF2lawxe5dPZUxWrQLH6W9nStgBjLcIvB+xk
Fdi7/SJi0bQRC7D3IwXPfbQEy7n35LNhsg8e3TCaKPpL1qupcwOxruy387kAVkY/
oFlAMxR/d0npaDIff7sRwi0H4At6GVdDdjQ/pWzI6k0qcmbE373NjV/BUlmEO+II
UqlYRtpCkEYqd88QD9kA3ZH+rFiN8Uj6z91f21jaOROktuzyo4QbAwDFgQWalgSr
yA==
-----END CERTIFICATE-----
