Certificate:
    Data:
        Version: 3 (0x2)
        Serial Number:
            70:0c:97:db:8e:42:00:f7:6e:cc:31:cf:2a:b0:ea:37
        Signature Algorithm: sha256WithRSAEncryption
        Issuer: CN=easytls-unit-test
        Validity
            Not Before: Feb 26 00:08:14 2022 GMT
            Not After : May 31 00:08:14 2024 GMT
        Subject: CN=c07-nomd
        Subject Public Key Info:
            Public Key Algorithm: rsaEncryption
                Public-Key: (2048 bit)
                Modulus:
                    00:d7:42:58:ab:7a:01:01:1c:42:98:01:99:88:86:
                    4b:ec:2f:ae:08:ef:0b:e5:fb:ad:fb:c4:de:60:63:
                    9a:23:88:f2:95:21:75:79:68:96:29:3e:da:57:7f:
                    97:b2:3e:70:b2:50:83:72:a3:fe:88:d5:74:33:ec:
                    14:cc:12:e3:2a:97:80:ee:fe:ab:cd:85:0e:2d:c9:
                    bd:2c:0a:4d:69:94:db:86:66:47:2a:a7:41:d9:cb:
                    0b:c4:ab:12:61:03:2e:b8:2e:42:c4:8d:ee:76:b1:
                    17:4e:a7:53:14:72:3d:ec:da:30:69:87:e5:11:83:
                    1a:b4:cb:b8:b2:b2:d5:32:a4:68:b9:d8:2a:30:87:
                    52:f7:35:6e:bc:d1:88:c7:f0:5c:7d:12:2e:f1:59:
                    f2:e3:bb:ae:55:10:9e:30:4f:c0:26:6e:f8:00:27:
                    37:f5:df:0f:27:00:50:3a:af:bd:3a:7b:2b:47:59:
                    e3:c3:27:d7:5d:12:d2:9b:42:f4:d2:8e:c3:26:c2:
                    80:eb:78:78:8c:4a:3d:37:05:f1:6a:18:46:c3:94:
                    c5:a4:af:74:51:3d:7c:23:39:93:2e:e9:da:a2:86:
                    1f:0e:d4:72:c4:94:4f:ad:26:c2:bf:88:e8:b4:5a:
                    38:58:54:a8:ea:4b:68:22:ef:63:8b:59:54:03:f2:
                    91:b1
                Exponent: 65537 (0x10001)
        X509v3 extensions:
            X509v3 Basic Constraints: 
                CA:FALSE
            X509v3 Subject Key Identifier: 
                0D:F8:E5:1F:A6:CB:1D:04:E2:0B:2A:AA:D0:66:02:35:36:3E:E5:CF
            X509v3 Authority Key Identifier: 
                keyid:0E:E8:57:E7:5B:DF:A7:1A:79:64:53:89:BA:45:32:9D:B2:0C:6D:F2
                DirName:/CN=easytls-unit-test
                serial:49:7D:81:43:F9:79:34:B1:63:E8:C1:3D:08:93:3C:BE:36:CB:4D:7F
            X509v3 Extended Key Usage: 
                TLS Web Client Authentication
            X509v3 Key Usage: 
                Digital Signature
    Signature Algorithm: sha256WithRSAEncryption
    Signature Value:
        54:ea:db:3a:ad:fb:f1:a8:2d:46:18:50:1a:75:16:95:42:f9:
        31:55:fa:3b:56:96:c5:eb:38:94:87:cf:c2:2f:9e:84:83:90:
        ac:fe:9f:91:75:ea:d6:09:0c:8f:69:23:4b:fa:7f:0d:88:f5:
        4f:f5:c3:0f:cc:05:c7:51:03:ec:9c:8d:b4:fd:31:39:ba:37:
        db:70:c8:1d:90:d0:55:47:06:d4:35:ff:9c:c6:df:86:e7:d8:
        94:8a:97:10:2f:a1:f7:91:91:0a:11:0f:a6:ed:f9:79:3d:1c:
        60:57:b8:cf:33:ae:be:3e:35:d4:1c:75:07:e6:10:c7:2d:7c:
        e4:a8:65:35:46:9f:9f:2e:4a:73:a0:38:4d:aa:eb:f8:cc:52:
        a5:a0:bf:05:d8:d8:d3:d2:dc:a1:24:e3:c5:93:c2:08:8b:2a:
        ba:de:93:95:97:d6:30:3f:53:5a:71:30:1a:68:03:11:d1:6d:
        41:d7:f7:35:ec:85:db:27:ab:36:80:bb:13:f2:b9:ea:06:68:
        08:df:d0:32:85:f2:37:c4:b1:dd:71:49:2a:3e:70:8f:23:4e:
        4c:85:e8:e7:e4:83:ee:d4:77:10:22:91:8c:09:69:b4:3b:ab:
        42:a8:d0:31:88:a6:1b:2d:a4:59:ba:22:c1:36:48:1c:27:18:
        f1:01:54:9c
-----BEGIN CERTIFICATE-----
MIIDYjCCAkqgAwIBAgIQcAyX245CAPduzDHPKrDqNzANBgkqhkiG9w0BAQsFADAc
MRowGAYDVQQDDBFlYXN5dGxzLXVuaXQtdGVzdDAeFw0yMjAyMjYwMDA4MTRaFw0y
NDA1MzEwMDA4MTRaMBMxETAPBgNVBAMMCGMwNy1ub21kMIIBIjANBgkqhkiG9w0B
AQEFAAOCAQ8AMIIBCgKCAQEA10JYq3oBARxCmAGZiIZL7C+uCO8L5fut+8TeYGOa
I4jylSF1eWiWKT7aV3+Xsj5wslCDcqP+iNV0M+wUzBLjKpeA7v6rzYUOLcm9LApN
aZTbhmZHKqdB2csLxKsSYQMuuC5CxI3udrEXTqdTFHI97NowaYflEYMatMu4srLV
MqRoudgqMIdS9zVuvNGIx/BcfRIu8Vny47uuVRCeME/AJm74ACc39d8PJwBQOq+9
OnsrR1njwyfXXRLSm0L00o7DJsKA63h4jEo9NwXxahhGw5TFpK90UT18IzmTLuna
ooYfDtRyxJRPrSbCv4jotFo4WFSo6ktoIu9ji1lUA/KRsQIDAQABo4GoMIGlMAkG
A1UdEwQCMAAwHQYDVR0OBBYEFA345R+myx0E4gsqqtBmAjU2PuXPMFcGA1UdIwRQ
ME6AFA7oV+db36caeWRTibpFMp2yDG3yoSCkHjAcMRowGAYDVQQDDBFlYXN5dGxz
LXVuaXQtdGVzdIIUSX2BQ/l5NLFj6ME9CJM8vjbLTX8wEwYDVR0lBAwwCgYIKwYB
BQUHAwIwCwYDVR0PBAQDAgeAMA0GCSqGSIb3DQEBCwUAA4IBAQBU6ts6rfvxqC1G
GFAadRaVQvkxVfo7VpbF6ziUh8/CL56Eg5Cs/p+RderWCQyPaSNL+n8NiPVP9cMP
zAXHUQPsnI20/TE5ujfbcMgdkNBVRwbUNf+cxt+G59iUipcQL6H3kZEKEQ+m7fl5
PRxgV7jPM66+PjXUHHUH5hDHLXzkqGU1Rp+fLkpzoDhNquv4zFKloL8F2NjT0tyh
JOPFk8IIiyq63pOVl9YwP1NacTAaaAMR0W1B1/c17IXbJ6s2gLsT8rnqBmgI39Ay
hfI3xLHdcUkqPnCPI05Mhejn5IPu1HcQIpGMCWm0O6tCqNAxiKYbLaRZuiLBNkgc
JxjxAVSc
-----END CERTIFICATE-----
