Certificate:
    Data:
        Version: 3 (0x2)
        Serial Number:
            8a:5f:9f:9b:71:4e:1f:5c:df:d0:e6:c5:6d:9e:2f:4f
        Signature Algorithm: sha256WithRSAEncryption
        Issuer: CN=easytls-unit-test
        Validity
            Not Before: Feb 26 00:08:10 2022 GMT
            Not After : May 31 00:08:10 2024 GMT
        Subject: CN=c-auth
        Subject Public Key Info:
            Public Key Algorithm: rsaEncryption
                Public-Key: (2048 bit)
                Modulus:
                    00:ac:f3:c6:99:1f:43:c6:67:34:9d:34:ee:c3:1b:
                    d5:6c:98:bf:4a:ce:e7:1d:7a:04:e5:74:3a:73:17:
                    87:d8:43:6a:27:08:8b:6e:90:ce:d8:a4:a0:be:b1:
                    09:9b:c2:b0:30:ce:b8:81:1f:42:61:2f:86:ce:d7:
                    1f:33:87:a8:b0:86:03:a0:c7:82:b2:1e:cb:26:b8:
                    f1:e1:60:3e:52:71:9e:21:15:0c:ad:cb:2b:14:c0:
                    0b:fb:eb:0e:91:e5:63:5d:a8:cd:59:d2:b4:6a:ce:
                    80:bd:e0:9e:03:4f:d7:f9:7d:26:06:55:82:72:ad:
                    d6:03:a8:70:80:68:31:10:c1:df:07:2f:0f:c1:83:
                    f6:6f:a9:77:52:3b:a1:ac:49:2b:25:75:11:d7:92:
                    cd:8f:c1:e1:a6:9b:8d:88:20:c0:f2:e7:c7:b1:82:
                    eb:fc:81:20:96:a0:5b:e8:04:e7:0e:23:e5:63:9a:
                    95:a6:ca:aa:77:77:84:19:99:b0:2d:91:69:da:3b:
                    5e:29:ec:74:aa:68:1f:95:7f:bc:cd:cd:46:11:d6:
                    2b:2e:ba:cb:80:2b:65:1f:b7:04:85:77:87:8c:15:
                    26:db:fc:7d:8e:22:f7:96:3f:70:c6:f5:3b:6e:34:
                    33:59:3a:2b:42:71:cf:d6:82:20:1e:17:18:df:94:
                    9c:c1
                Exponent: 65537 (0x10001)
        X509v3 extensions:
            X509v3 Basic Constraints: 
                CA:FALSE
            X509v3 Subject Key Identifier: 
                C7:0D:64:16:C0:3B:1D:D6:7B:61:E3:07:93:EA:FF:C4:FF:22:A8:C0
            X509v3 Authority Key Identifier: 
                keyid:0E:E8:57:E7:5B:DF:A7:1A:79:64:53:89:BA:45:32:9D:B2:0C:6D:F2
                DirName:/CN=easytls-unit-test
                serial:49:7D:81:43:F9:79:34:B1:63:E8:C1:3D:08:93:3C:BE:36:CB:4D:7F
            X509v3 Extended Key Usage: 
                TLS Web Client Authentication
            X509v3 Key Usage: 
                Digital Signature
    Signature Algorithm: sha256WithRSAEncryption
    Signature Value:
        69:c9:23:0c:8d:b5:61:f7:5b:73:cf:2e:57:dc:c4:f1:58:36:
        d2:c1:eb:69:99:bb:b1:a7:a1:84:a6:81:bd:b7:cd:ee:47:c4:
        a3:21:82:40:2f:01:5d:80:d0:75:34:bb:1d:56:b9:9d:7a:8c:
        fe:92:68:50:b7:fe:15:13:9a:fd:4c:d3:76:f9:c4:3d:0a:41:
        f1:de:a5:54:dd:69:e2:c4:10:d9:f0:78:4c:b3:80:a1:cf:88:
        f6:16:99:39:57:6f:36:39:fa:00:10:86:62:50:2d:2e:55:90:
        ab:e1:2e:6b:af:9e:60:a6:dc:17:f1:e1:ec:72:6e:4f:1e:bf:
        d1:21:cb:df:3f:93:40:7f:bb:35:f2:80:fc:3b:02:9a:5d:ce:
        7b:d5:72:f6:02:9c:29:fb:18:c6:4b:36:eb:16:91:d4:4b:3e:
        ad:bf:7c:1c:1d:99:2a:87:1c:58:7d:4d:e3:a6:79:45:61:7c:
        94:31:c5:ab:40:f2:98:23:bd:4f:66:48:5a:7d:22:b1:6c:29:
        79:b8:16:5b:2e:12:d9:1f:26:b5:23:ee:88:86:23:57:a3:6f:
        37:03:96:d0:d1:ec:f3:24:35:e4:4b:f7:59:17:bf:28:99:9e:
        e9:6c:e5:51:92:11:c5:fe:48:6c:34:93:fa:36:b2:93:69:03:
        41:cd:c6:6b
-----BEGIN CERTIFICATE-----
MIIDYTCCAkmgAwIBAgIRAIpfn5txTh9c39DmxW2eL08wDQYJKoZIhvcNAQELBQAw
HDEaMBgGA1UEAwwRZWFzeXRscy11bml0LXRlc3QwHhcNMjIwMjI2MDAwODEwWhcN
MjQwNTMxMDAwODEwWjARMQ8wDQYDVQQDDAZjLWF1dGgwggEiMA0GCSqGSIb3DQEB
AQUAA4IBDwAwggEKAoIBAQCs88aZH0PGZzSdNO7DG9VsmL9KzucdegTldDpzF4fY
Q2onCItukM7YpKC+sQmbwrAwzriBH0JhL4bO1x8zh6iwhgOgx4KyHssmuPHhYD5S
cZ4hFQytyysUwAv76w6R5WNdqM1Z0rRqzoC94J4DT9f5fSYGVYJyrdYDqHCAaDEQ
wd8HLw/Bg/ZvqXdSO6GsSSsldRHXks2PweGmm42IIMDy58exguv8gSCWoFvoBOcO
I+VjmpWmyqp3d4QZmbAtkWnaO14p7HSqaB+Vf7zNzUYR1isuusuAK2UftwSFd4eM
FSbb/H2OIveWP3DG9TtuNDNZOitCcc/WgiAeFxjflJzBAgMBAAGjgagwgaUwCQYD
VR0TBAIwADAdBgNVHQ4EFgQUxw1kFsA7HdZ7YeMHk+r/xP8iqMAwVwYDVR0jBFAw
ToAUDuhX51vfpxp5ZFOJukUynbIMbfKhIKQeMBwxGjAYBgNVBAMMEWVhc3l0bHMt
dW5pdC10ZXN0ghRJfYFD+Xk0sWPowT0Ikzy+NstNfzATBgNVHSUEDDAKBggrBgEF
BQcDAjALBgNVHQ8EBAMCB4AwDQYJKoZIhvcNAQELBQADggEBAGnJIwyNtWH3W3PP
LlfcxPFYNtLB62mZu7GnoYSmgb23ze5HxKMhgkAvAV2A0HU0ux1WuZ16jP6SaFC3
/hUTmv1M03b5xD0KQfHepVTdaeLEENnweEyzgKHPiPYWmTlXbzY5+gAQhmJQLS5V
kKvhLmuvnmCm3Bfx4exybk8ev9Ehy98/k0B/uzXygPw7AppdznvVcvYCnCn7GMZL
NusWkdRLPq2/fBwdmSqHHFh9TeOmeUVhfJQxxatA8pgjvU9mSFp9IrFsKXm4Flsu
EtkfJrUj7oiGI1ejbzcDltDR7PMkNeRL91kXvyiZnuls5VGSEcX+SGw0k/o2spNp
A0HNxms=
-----END CERTIFICATE-----
