Certificate:
    Data:
        Version: 3 (0x2)
        Serial Number:
            9f:0f:7c:b1:06:79:56:9c:9d:e3:6d:20:85:39:8c:ec
        Signature Algorithm: sha256WithRSAEncryption
        Issuer: CN=easytls-unit-test
        Validity
            Not Before: Feb 26 00:08:12 2022 GMT
            Not After : May 31 00:08:12 2024 GMT
        Subject: CN=c02
        Subject Public Key Info:
            Public Key Algorithm: rsaEncryption
                Public-Key: (2048 bit)
                Modulus:
                    00:9c:c6:ca:5c:6f:4c:02:b4:67:0b:99:e2:e9:14:
                    a8:9c:4e:ce:bf:98:ac:b5:75:6e:84:1b:8e:c0:f7:
                    d2:e2:75:9d:bf:2a:c8:a3:73:1c:18:04:bf:64:5e:
                    42:e9:f3:8e:66:ad:30:89:7c:7f:59:51:4f:46:6e:
                    48:af:90:01:93:b4:d7:5c:b4:4d:fa:9a:fa:ce:0c:
                    79:50:d1:be:ef:12:d5:b6:11:db:15:09:bb:b1:04:
                    72:74:f5:35:e9:35:e0:10:8e:b0:2b:2b:e9:50:2a:
                    56:d3:e7:41:be:23:39:b1:bd:c7:a3:a7:a0:25:4e:
                    c9:45:e5:45:9d:42:95:16:62:e8:3b:97:e0:00:1a:
                    0a:b9:99:aa:16:b5:04:1a:82:02:29:5e:8b:bd:75:
                    f5:5f:10:87:1f:f2:df:51:77:dc:87:30:7b:85:46:
                    ea:05:8c:3c:24:dc:a1:2b:2f:f0:0e:58:cf:aa:b3:
                    5c:8d:c5:76:0e:af:d1:18:ac:c1:d1:1d:60:47:95:
                    75:7a:05:e0:f7:d7:8a:f6:2b:28:cb:d5:ae:8c:bb:
                    f6:a9:b2:2c:77:41:36:de:0f:fd:3f:8f:49:2f:26:
                    c6:dc:bf:fe:7c:3f:aa:a1:a7:b0:cf:11:bf:f3:ea:
                    56:f5:ea:b9:0c:11:db:da:88:e8:de:3f:9b:6e:b9:
                    86:c1
                Exponent: 65537 (0x10001)
        X509v3 extensions:
            X509v3 Basic Constraints: 
                CA:FALSE
            X509v3 Subject Key Identifier: 
                D8:57:B5:1E:0C:1D:CD:72:C0:C5:04:00:0B:17:8C:29:FB:50:79:11
            X509v3 Authority Key Identifier: 
                keyid:0E:E8:57:E7:5B:DF:A7:1A:79:64:53:89:BA:45:32:9D:B2:0C:6D:F2
                DirName:/CN=easytls-unit-test
                serial:49:7D:81:43:F9:79:34:B1:63:E8:C1:3D:08:93:3C:BE:36:CB:4D:7F
            X509v3 Extended Key Usage: 
                TLS Web Client Authentication
            X509v3 Key Usage: 
                Digital Signature
    Signature Algorithm: sha256WithRSAEncryption
    Signature Value:
        85:21:79:9f:bf:8b:93:65:70:65:76:1e:54:7b:be:b1:08:e9:
        08:a7:5d:a9:60:78:67:67:e4:8f:20:ef:92:db:f3:74:a5:18:
        35:35:99:a1:e4:7a:88:7d:4d:eb:6d:9f:3b:ba:92:12:c6:76:
        96:f5:1a:01:0c:c5:09:d2:a7:38:2d:23:d5:46:99:1b:b1:6e:
        cb:7e:f6:0a:71:03:c5:64:0f:2e:72:17:d3:09:a4:63:b7:d0:
        ed:00:eb:ff:af:34:14:cb:31:21:d7:3c:18:7f:4f:3e:3b:09:
        ff:28:41:fe:80:ed:be:2e:20:07:88:ce:2b:48:b5:47:41:bf:
        72:b7:00:79:b7:e1:ca:6a:42:a8:46:41:e2:9c:ae:cf:6b:82:
        da:cc:12:04:32:21:ae:42:23:85:b4:44:6f:3c:d9:75:c2:dc:
        67:fb:37:fe:c5:7e:14:8d:d9:21:ae:92:ad:1b:d2:f3:bd:e0:
        2c:94:d9:e6:fe:14:f7:dc:f5:f5:89:09:25:44:be:2e:59:0b:
        b2:fd:69:3a:a3:42:57:03:92:a7:52:25:db:d7:aa:5c:9e:df:
        ef:6c:40:8c:b7:18:8d:f4:24:8e:49:4b:01:69:64:00:04:25:
        e1:23:3f:71:92:ac:ec:fc:f1:d5:09:96:31:fb:ae:60:18:90:
        df:ba:79:37
-----BEGIN CERTIFICATE-----
MIIDXjCCAkagAwIBAgIRAJ8PfLEGeVacneNtIIU5jOwwDQYJKoZIhvcNAQELBQAw
HDEaMBgGA1UEAwwRZWFzeXRscy11bml0LXRlc3QwHhcNMjIwMjI2MDAwODEyWhcN
MjQwNTMxMDAwODEyWjAOMQwwCgYDVQQDDANjMDIwggEiMA0GCSqGSIb3DQEBAQUA
A4IBDwAwggEKAoIBAQCcxspcb0wCtGcLmeLpFKicTs6/mKy1dW6EG47A99LidZ2/
KsijcxwYBL9kXkLp845mrTCJfH9ZUU9GbkivkAGTtNdctE36mvrODHlQ0b7vEtW2
EdsVCbuxBHJ09TXpNeAQjrArK+lQKlbT50G+Izmxvcejp6AlTslF5UWdQpUWYug7
l+AAGgq5maoWtQQaggIpXou9dfVfEIcf8t9Rd9yHMHuFRuoFjDwk3KErL/AOWM+q
s1yNxXYOr9EYrMHRHWBHlXV6BeD314r2KyjL1a6Mu/apsix3QTbeD/0/j0kvJsbc
v/58P6qhp7DPEb/z6lb16rkMEdvaiOjeP5tuuYbBAgMBAAGjgagwgaUwCQYDVR0T
BAIwADAdBgNVHQ4EFgQU2Fe1HgwdzXLAxQQACxeMKftQeREwVwYDVR0jBFAwToAU
DuhX51vfpxp5ZFOJukUynbIMbfKhIKQeMBwxGjAYBgNVBAMMEWVhc3l0bHMtdW5p
dC10ZXN0ghRJfYFD+Xk0sWPowT0Ikzy+NstNfzATBgNVHSUEDDAKBggrBgEFBQcD
AjALBgNVHQ8EBAMCB4AwDQYJKoZIhvcNAQELBQADggEBAIUheZ+/i5NlcGV2HlR7
vrEI6QinXalgeGdn5I8g75Lb83SlGDU1maHkeoh9Tettnzu6khLGdpb1GgEMxQnS
pzgtI9VGmRuxbst+9gpxA8VkDy5yF9MJpGO30O0A6/+vNBTLMSHXPBh/Tz47Cf8o
Qf6A7b4uIAeIzitItUdBv3K3AHm34cpqQqhGQeKcrs9rgtrMEgQyIa5CI4W0RG88
2XXC3Gf7N/7FfhSN2SGukq0b0vO94CyU2eb+FPfc9fWJCSVEvi5ZC7L9aTqjQlcD
kqdSJdvXqlye3+9sQIy3GI30JI5JSwFpZAAEJeEjP3GSrOz88dUJljH7rmAYkN+6
eTc=
-----END CERTIFICATE-----
