Certificate:
    Data:
        Version: 3 (0x2)
        Serial Number:
            a3:57:2c:81:7b:e1:15:74:3e:ee:02:a3:89:43:be:80
        Signature Algorithm: sha256WithRSAEncryption
        Issuer: CN=easytls-unit-test
        Validity
            Not Before: Feb 26 00:08:11 2022 GMT
            Not After : May 31 00:08:11 2024 GMT
        Subject: CN=c01
        Subject Public Key Info:
            Public Key Algorithm: rsaEncryption
                Public-Key: (2048 bit)
                Modulus:
                    00:c1:70:6b:8b:36:97:b5:2f:03:2a:f8:04:1a:5b:
                    ca:66:9b:8c:c7:ab:e0:63:c8:9c:2c:6a:3d:cc:e0:
                    6d:a8:00:15:0a:64:b0:b6:3a:91:65:1a:e5:ad:27:
                    6c:09:e5:0f:fd:33:2a:d2:0f:a4:49:b1:4f:a5:4d:
                    44:fd:53:48:97:3e:c4:cc:f4:e4:ca:7e:ed:19:bc:
                    0d:e9:56:a3:40:9b:6d:99:ed:47:c8:cf:a3:33:f1:
                    0a:46:bb:6e:3e:31:d5:a6:c9:b7:c4:30:8c:6f:2c:
                    f2:b7:06:3c:58:bf:d2:c3:d4:26:6c:af:6b:72:d2:
                    f8:11:eb:e9:3d:88:6d:93:6c:e4:ce:3a:9b:57:52:
                    fb:7c:ed:e3:ef:cd:bd:bb:9f:a2:43:0f:7f:5f:43:
                    b7:5d:7f:7a:9a:a3:78:73:26:cb:ea:45:30:21:96:
                    83:4e:73:4a:be:f8:be:01:37:f4:17:f7:89:fa:7a:
                    0f:fb:95:d4:20:dd:d5:84:0f:06:cf:e9:b0:1d:d0:
                    7e:df:a9:b3:aa:49:9b:9e:90:2c:e3:20:7e:dc:52:
                    b5:ab:c4:a2:5c:9a:ce:c1:65:6c:5b:1f:21:76:f5:
                    43:20:93:2f:c4:99:ff:27:8a:c9:13:3f:7d:94:93:
                    6b:32:e3:59:a6:52:b4:e9:96:90:78:ef:61:60:83:
                    17:c5
                Exponent: 65537 (0x10001)
        X509v3 extensions:
            X509v3 Basic Constraints: 
                CA:FALSE
            X509v3 Subject Key Identifier: 
                6C:CF:C0:E4:9A:40:D5:57:B6:81:F0:8F:4F:EA:E7:0B:4C:41:48:58
            X509v3 Authority Key Identifier: 
                keyid:0E:E8:57:E7:5B:DF:A7:1A:79:64:53:89:BA:45:32:9D:B2:0C:6D:F2
                DirName:/CN=easytls-unit-test
                serial:49:7D:81:43:F9:79:34:B1:63:E8:C1:3D:08:93:3C:BE:36:CB:4D:7F
            X509v3 Extended Key Usage: 
                TLS Web Client Authentication
            X509v3 Key Usage: 
                Digital Signature
    Signature Algorithm: sha256WithRSAEncryption
    Signature Value:
        2b:c0:f4:46:2c:cb:af:49:05:a5:ea:9c:95:96:31:20:fe:af:
        e3:5f:ed:8b:d5:4b:fb:5d:03:58:de:7d:c7:f2:38:57:90:3e:
        3b:ac:82:c2:5f:c7:38:1c:fa:4f:2e:dc:a0:e9:f7:a1:29:2c:
        c3:56:09:c7:c7:e3:57:1d:2d:23:e2:48:f5:13:b7:da:a7:9b:
        e0:4d:cc:55:46:c3:69:6e:67:e2:5d:32:e7:db:2a:69:e5:7d:
        6f:96:ad:25:d9:15:cd:b1:1a:1e:77:dc:fa:00:d4:33:ae:16:
        79:e3:ae:13:ba:b0:30:99:6c:4d:00:33:90:e2:ac:25:ba:5f:
        20:d6:43:95:23:ae:66:2e:a4:73:08:39:a8:d4:17:4a:2c:bd:
        07:57:47:c2:14:76:5e:27:8a:7d:8b:81:18:5d:13:2f:c4:42:
        63:3b:93:a5:6f:9c:15:d0:ac:f4:cc:bb:22:43:7e:de:bb:5f:
        dd:77:c9:31:6e:5d:e7:ce:53:f1:5d:c3:02:c6:0c:c4:c0:0d:
        dd:49:59:8e:2e:85:4a:bb:c9:cf:c1:ae:33:78:54:ed:27:bd:
        85:82:0f:2d:8f:62:8e:3e:c0:ef:3b:0d:07:37:74:9a:d7:44:
        d9:d0:a5:ea:6a:67:86:3e:12:a4:3f:40:3b:30:88:cd:22:aa:
        1e:75:74:fb
-----BEGIN CERTIFICATE-----
MIIDXjCCAkagAwIBAgIRAKNXLIF74RV0Pu4Co4lDvoAwDQYJKoZIhvcNAQELBQAw
HDEaMBgGA1UEAwwRZWFzeXRscy11bml0LXRlc3QwHhcNMjIwMjI2MDAwODExWhcN
MjQwNTMxMDAwODExWjAOMQwwCgYDVQQDDANjMDEwggEiMA0GCSqGSIb3DQEBAQUA
A4IBDwAwggEKAoIBAQDBcGuLNpe1LwMq+AQaW8pmm4zHq+BjyJwsaj3M4G2oABUK
ZLC2OpFlGuWtJ2wJ5Q/9MyrSD6RJsU+lTUT9U0iXPsTM9OTKfu0ZvA3pVqNAm22Z
7UfIz6Mz8QpGu24+MdWmybfEMIxvLPK3BjxYv9LD1CZsr2ty0vgR6+k9iG2TbOTO
OptXUvt87ePvzb27n6JDD39fQ7ddf3qao3hzJsvqRTAhloNOc0q++L4BN/QX94n6
eg/7ldQg3dWEDwbP6bAd0H7fqbOqSZuekCzjIH7cUrWrxKJcms7BZWxbHyF29UMg
ky/Emf8niskTP32Uk2sy41mmUrTplpB472FggxfFAgMBAAGjgagwgaUwCQYDVR0T
BAIwADAdBgNVHQ4EFgQUbM/A5JpA1Ve2gfCPT+rnC0xBSFgwVwYDVR0jBFAwToAU
DuhX51vfpxp5ZFOJukUynbIMbfKhIKQeMBwxGjAYBgNVBAMMEWVhc3l0bHMtdW5p
dC10ZXN0ghRJfYFD+Xk0sWPowT0Ikzy+NstNfzATBgNVHSUEDDAKBggrBgEFBQcD
AjALBgNVHQ8EBAMCB4AwDQYJKoZIhvcNAQELBQADggEBACvA9EYsy69JBaXqnJWW
MSD+r+Nf7YvVS/tdA1jefcfyOFeQPjusgsJfxzgc+k8u3KDp96EpLMNWCcfH41cd
LSPiSPUTt9qnm+BNzFVGw2luZ+JdMufbKmnlfW+WrSXZFc2xGh533PoA1DOuFnnj
rhO6sDCZbE0AM5DirCW6XyDWQ5UjrmYupHMIOajUF0osvQdXR8IUdl4nin2LgRhd
Ey/EQmM7k6VvnBXQrPTMuyJDft67X913yTFuXefOU/FdwwLGDMTADd1JWY4uhUq7
yc/BrjN4VO0nvYWCDy2PYo4+wO87DQc3dJrXRNnQpepqZ4Y+EqQ/QDswiM0iqh51
dPs=
-----END CERTIFICATE-----
