Certificate:
    Data:
        Version: 3 (0x2)
        Serial Number:
            b9:a8:14:8b:27:fc:7d:a0:f9:05:d2:28:c5:8d:7d:50
        Signature Algorithm: sha256WithRSAEncryption
        Issuer: CN=easytls-unit-test
        Validity
            Not Before: Feb 26 00:08:15 2022 GMT
            Not After : May 31 00:08:15 2024 GMT
        Subject: CN=cw01
        Subject Public Key Info:
            Public Key Algorithm: rsaEncryption
                Public-Key: (2048 bit)
                Modulus:
                    00:b6:5c:dd:9c:61:77:96:41:a1:e8:c4:aa:f7:e2:
                    a0:0e:11:b9:ec:22:d6:a0:a4:cf:b4:18:60:88:35:
                    1e:39:e9:2c:0a:6d:c0:c3:dc:8e:d2:82:91:20:e4:
                    1c:ff:70:bd:44:2a:10:14:30:a7:a9:39:03:bc:1d:
                    06:68:9d:f4:5c:1b:7f:64:e0:4f:66:8e:29:d2:b3:
                    ce:43:de:d2:4b:2e:1a:2c:4f:75:65:30:97:7d:d9:
                    22:6b:b9:30:0f:4e:0a:bf:74:c6:27:e2:52:2a:b4:
                    e4:b9:00:72:9e:db:bc:0f:ee:75:a6:df:9d:0f:eb:
                    d8:d8:66:23:23:4b:0e:95:8d:fa:73:97:d3:ac:a9:
                    70:e9:94:86:a9:20:ba:af:88:7b:19:be:c5:5b:50:
                    21:7c:d1:5a:12:e7:5e:13:4f:23:7f:67:15:4b:06:
                    fe:6c:84:90:0c:a5:87:1b:4f:6e:12:28:7d:43:1e:
                    72:12:9a:fa:22:95:e0:5d:78:80:63:d6:54:66:d4:
                    a6:29:9b:89:cd:02:38:d4:42:80:11:68:1d:06:ac:
                    08:af:b3:51:88:db:a4:49:26:a0:4b:03:f0:32:21:
                    76:4d:09:82:c3:36:ed:d1:51:fb:00:a0:5c:65:a3:
                    87:b5:7f:ad:36:d3:27:26:13:68:13:f0:c9:71:1a:
                    58:49
                Exponent: 65537 (0x10001)
        X509v3 extensions:
            X509v3 Basic Constraints: 
                CA:FALSE
            X509v3 Subject Key Identifier: 
                77:2E:87:EB:1D:86:E1:3D:3B:D0:4D:D6:B9:06:7C:3F:54:4D:69:56
            X509v3 Authority Key Identifier: 
                keyid:0E:E8:57:E7:5B:DF:A7:1A:79:64:53:89:BA:45:32:9D:B2:0C:6D:F2
                DirName:/CN=easytls-unit-test
                serial:49:7D:81:43:F9:79:34:B1:63:E8:C1:3D:08:93:3C:BE:36:CB:4D:7F
            X509v3 Extended Key Usage: 
                TLS Web Client Authentication
            X509v3 Key Usage: 
                Digital Signature
    Signature Algorithm: sha256WithRSAEncryption
    Signature Value:
        11:9d:61:8b:73:7e:53:5e:9d:94:bf:a2:f2:3b:47:3b:b4:96:
        d1:c1:41:8c:e2:06:36:30:7a:92:b3:78:b9:85:bf:cf:93:22:
        f1:c1:1c:09:2a:c7:b5:a4:16:58:ef:cb:50:30:a9:e5:ce:8e:
        7c:a6:52:e9:a6:0d:93:e0:b6:42:dc:4f:28:4c:58:6b:e8:d2:
        ca:ba:00:20:1c:db:20:0d:15:b4:a0:b2:38:56:53:de:22:b1:
        73:68:61:22:1a:4e:c6:a5:4e:63:ba:35:d5:7d:05:c5:e4:4a:
        38:cf:65:4f:09:57:60:a0:b3:24:c7:c6:b1:26:19:61:72:1d:
        38:e1:78:fe:a3:98:b3:2d:06:0a:e9:c9:19:77:ea:45:76:34:
        5b:6d:f7:fb:cf:b0:3a:e0:81:ac:f8:fc:bd:61:95:10:34:70:
        1d:42:ea:24:cc:6a:cb:d2:88:d8:8c:13:03:01:bc:b6:47:a2:
        3c:b9:22:a1:9d:9d:6f:cd:c2:08:8d:36:11:76:ec:09:78:0b:
        dd:71:a4:e0:99:17:34:03:22:a2:71:0d:83:22:b6:90:03:22:
        58:fd:b0:84:7c:4b:13:a9:6b:17:9d:5e:a2:02:98:a7:d2:4b:
        84:d2:d0:68:ba:69:51:b3:b1:9e:12:76:c8:89:02:82:d9:6a:
        63:39:44:4f
-----BEGIN CERTIFICATE-----
MIIDXzCCAkegAwIBAgIRALmoFIsn/H2g+QXSKMWNfVAwDQYJKoZIhvcNAQELBQAw
HDEaMBgGA1UEAwwRZWFzeXRscy11bml0LXRlc3QwHhcNMjIwMjI2MDAwODE1WhcN
MjQwNTMxMDAwODE1WjAPMQ0wCwYDVQQDDARjdzAxMIIBIjANBgkqhkiG9w0BAQEF
AAOCAQ8AMIIBCgKCAQEAtlzdnGF3lkGh6MSq9+KgDhG57CLWoKTPtBhgiDUeOeks
Cm3Aw9yO0oKRIOQc/3C9RCoQFDCnqTkDvB0GaJ30XBt/ZOBPZo4p0rPOQ97SSy4a
LE91ZTCXfdkia7kwD04Kv3TGJ+JSKrTkuQByntu8D+51pt+dD+vY2GYjI0sOlY36
c5fTrKlw6ZSGqSC6r4h7Gb7FW1AhfNFaEudeE08jf2cVSwb+bISQDKWHG09uEih9
Qx5yEpr6IpXgXXiAY9ZUZtSmKZuJzQI41EKAEWgdBqwIr7NRiNukSSagSwPwMiF2
TQmCwzbt0VH7AKBcZaOHtX+tNtMnJhNoE/DJcRpYSQIDAQABo4GoMIGlMAkGA1Ud
EwQCMAAwHQYDVR0OBBYEFHcuh+sdhuE9O9BN1rkGfD9UTWlWMFcGA1UdIwRQME6A
FA7oV+db36caeWRTibpFMp2yDG3yoSCkHjAcMRowGAYDVQQDDBFlYXN5dGxzLXVu
aXQtdGVzdIIUSX2BQ/l5NLFj6ME9CJM8vjbLTX8wEwYDVR0lBAwwCgYIKwYBBQUH
AwIwCwYDVR0PBAQDAgeAMA0GCSqGSIb3DQEBCwUAA4IBAQARnWGLc35TXp2Uv6Ly
O0c7tJbRwUGM4gY2MHqSs3i5hb/PkyLxwRwJKse1pBZY78tQMKnlzo58plLppg2T
4LZC3E8oTFhr6NLKugAgHNsgDRW0oLI4VlPeIrFzaGEiGk7GpU5jujXVfQXF5Eo4
z2VPCVdgoLMkx8axJhlhch044Xj+o5izLQYK6ckZd+pFdjRbbff7z7A64IGs+Py9
YZUQNHAdQuokzGrL0ojYjBMDAby2R6I8uSKhnZ1vzcIIjTYRduwJeAvdcaTgmRc0
AyKicQ2DIraQAyJY/bCEfEsTqWsXnV6iApin0kuE0tBoumlRs7GeEnbIiQKC2Wpj
OURP
-----END CERTIFICATE-----
