Certificate:
    Data:
        Version: 3 (0x2)
        Serial Number:
            be:8b:72:fc:75:65:91:8c:e9:03:ae:9e:c6:29:59:80
        Signature Algorithm: sha256WithRSAEncryption
        Issuer: CN=easytls-unit-test
        Validity
            Not Before: Feb 26 00:08:10 2022 GMT
            Not After : May 31 00:08:10 2024 GMT
        Subject: CN=c-crypt
        Subject Public Key Info:
            Public Key Algorithm: rsaEncryption
                Public-Key: (2048 bit)
                Modulus:
                    00:d4:f1:ee:89:59:f3:db:e6:9a:d1:65:b6:4f:64:
                    ba:17:a4:e9:3b:74:8d:24:80:f4:0b:98:ae:0d:9c:
                    85:d4:ac:a1:a7:3c:32:c1:e1:74:53:f6:8f:43:1c:
                    3b:2d:fa:37:23:e8:0a:d7:b1:08:5a:55:be:cd:12:
                    08:65:06:77:7c:87:49:94:59:98:dc:58:5d:c5:d1:
                    00:4f:84:76:e2:4f:42:cb:79:f1:5a:22:bf:6f:9a:
                    e3:4c:a8:11:d0:a8:96:2d:01:4d:d0:f6:68:21:a7:
                    df:5e:d3:68:b1:6c:57:bc:3f:a0:64:8d:42:e5:59:
                    5c:22:5c:ba:18:31:20:12:2c:78:18:f1:9f:b6:26:
                    42:fd:11:e8:8d:7e:f6:e4:5b:fb:b5:c6:26:6a:05:
                    a9:58:9e:a1:23:bd:6c:b2:a4:9a:c8:66:d9:1e:14:
                    50:d2:84:4b:38:f7:c2:70:eb:fc:ea:13:d6:3c:a7:
                    f4:fe:30:a5:48:fa:ac:19:25:27:01:dc:63:3a:a7:
                    65:5b:a4:b0:a4:a3:39:e2:44:52:17:f9:cf:6e:27:
                    53:9a:53:cf:ed:96:00:16:a7:3b:b0:21:79:5e:38:
                    a3:81:f3:a7:43:75:63:8e:f6:3b:e9:fc:06:94:69:
                    40:40:dd:51:d6:44:35:88:df:f2:2e:6d:51:36:43:
                    7c:ff
                Exponent: 65537 (0x10001)
        X509v3 extensions:
            X509v3 Basic Constraints: 
                CA:FALSE
            X509v3 Subject Key Identifier: 
                0D:14:5A:6C:C5:BB:EF:09:3F:17:4A:54:FD:ED:5F:3A:92:DB:77:D5
            X509v3 Authority Key Identifier: 
                keyid:0E:E8:57:E7:5B:DF:A7:1A:79:64:53:89:BA:45:32:9D:B2:0C:6D:F2
                DirName:/CN=easytls-unit-test
                serial:49:7D:81:43:F9:79:34:B1:63:E8:C1:3D:08:93:3C:BE:36:CB:4D:7F
            X509v3 Extended Key Usage: 
                TLS Web Client Authentication
            X509v3 Key Usage: 
                Digital Signature
    Signature Algorithm: sha256WithRSAEncryption
    Signature Value:
        51:13:5b:07:1a:08:c7:1e:5e:a2:60:14:cd:39:24:ab:83:c5:
        c4:1f:6a:55:8a:14:5b:b4:cc:5b:a6:c2:c7:04:79:a6:07:34:
        94:3e:95:b4:16:3f:d9:1e:c6:36:cd:83:3b:c8:11:37:bc:12:
        5f:49:64:a2:48:8b:62:cc:19:66:ac:27:d8:70:1f:4d:4b:da:
        2b:9a:a7:bb:5e:9a:0f:77:d3:47:5a:ee:9d:f5:ac:86:4a:dd:
        36:89:4a:3a:b0:c5:61:6f:d1:14:44:fa:11:57:f6:3a:c8:78:
        6d:93:ed:ef:5e:d5:72:d9:1f:f9:a2:d7:c4:0f:5b:a4:8c:61:
        bd:79:ac:43:a8:ed:bc:c6:c6:f8:e3:9e:d9:ad:91:03:fd:1d:
        a0:50:ca:11:6f:a9:3e:90:39:62:e4:05:99:00:eb:d1:b3:be:
        c8:8a:28:f7:9c:ac:93:62:e0:47:f6:fe:b7:9b:f0:75:a0:0e:
        15:73:be:40:fe:97:6b:1b:d3:b4:32:28:50:23:49:bb:4d:6b:
        55:26:94:21:41:99:67:20:49:38:10:68:3c:60:72:1f:cf:37:
        57:4c:bf:29:66:59:d0:7d:52:f4:86:56:17:27:c4:3c:f0:85:
        df:42:b4:f9:ac:a5:fb:7d:89:31:c7:38:5d:25:cb:9f:47:d9:
        5f:d9:3c:a3
-----BEGIN CERTIFICATE-----
MIIDYjCCAkqgAwIBAgIRAL6Lcvx1ZZGM6QOunsYpWYAwDQYJKoZIhvcNAQELBQAw
HDEaMBgGA1UEAwwRZWFzeXRscy11bml0LXRlc3QwHhcNMjIwMjI2MDAwODEwWhcN
MjQwNTMxMDAwODEwWjASMRAwDgYDVQQDDAdjLWNyeXB0MIIBIjANBgkqhkiG9w0B
AQEFAAOCAQ8AMIIBCgKCAQEA1PHuiVnz2+aa0WW2T2S6F6TpO3SNJID0C5iuDZyF
1KyhpzwyweF0U/aPQxw7Lfo3I+gK17EIWlW+zRIIZQZ3fIdJlFmY3FhdxdEAT4R2
4k9Cy3nxWiK/b5rjTKgR0KiWLQFN0PZoIaffXtNosWxXvD+gZI1C5VlcIly6GDEg
Eix4GPGftiZC/RHojX725Fv7tcYmagWpWJ6hI71ssqSayGbZHhRQ0oRLOPfCcOv8
6hPWPKf0/jClSPqsGSUnAdxjOqdlW6SwpKM54kRSF/nPbidTmlPP7ZYAFqc7sCF5
XjijgfOnQ3VjjvY76fwGlGlAQN1R1kQ1iN/yLm1RNkN8/wIDAQABo4GoMIGlMAkG
A1UdEwQCMAAwHQYDVR0OBBYEFA0UWmzFu+8JPxdKVP3tXzqS23fVMFcGA1UdIwRQ
ME6AFA7oV+db36caeWRTibpFMp2yDG3yoSCkHjAcMRowGAYDVQQDDBFlYXN5dGxz
LXVuaXQtdGVzdIIUSX2BQ/l5NLFj6ME9CJM8vjbLTX8wEwYDVR0lBAwwCgYIKwYB
BQUHAwIwCwYDVR0PBAQDAgeAMA0GCSqGSIb3DQEBCwUAA4IBAQBRE1sHGgjHHl6i
YBTNOSSrg8XEH2pVihRbtMxbpsLHBHmmBzSUPpW0Fj/ZHsY2zYM7yBE3vBJfSWSi
SItizBlmrCfYcB9NS9ormqe7XpoPd9NHWu6d9ayGSt02iUo6sMVhb9EURPoRV/Y6
yHhtk+3vXtVy2R/5otfED1ukjGG9eaxDqO28xsb4457ZrZED/R2gUMoRb6k+kDli
5AWZAOvRs77Iiij3nKyTYuBH9v63m/B1oA4Vc75A/pdrG9O0MihQI0m7TWtVJpQh
QZlnIEk4EGg8YHIfzzdXTL8pZlnQfVL0hlYXJ8Q88IXfQrT5rKX7fYkxxzhdJcuf
R9lf2Tyj
-----END CERTIFICATE-----
