Certificate:
    Data:
        Version: 3 (0x2)
        Serial Number:
            e8:53:86:45:83:8a:f1:23:75:10:c1:ec:3a:70:df:f0
        Signature Algorithm: sha256WithRSAEncryption
        Issuer: CN=easytls-unit-test
        Validity
            Not Before: Feb 26 00:08:15 2022 GMT
            Not After : May 31 00:08:15 2024 GMT
        Subject: CN=c09
        Subject Public Key Info:
            Public Key Algorithm: rsaEncryption
                Public-Key: (2048 bit)
                Modulus:
                    00:e6:25:ab:0e:cd:e9:8b:37:9c:90:28:e1:e4:dc:
                    2d:3b:6e:d2:e1:2c:a2:04:97:b1:32:96:f6:f4:81:
                    1d:fa:4c:65:be:ac:1c:18:e1:e7:d7:90:12:e3:51:
                    6d:dd:a9:0f:95:d1:7e:02:c6:9a:4e:76:9a:b2:86:
                    83:e7:db:16:c2:41:ee:46:27:ff:47:dc:09:ff:83:
                    b2:57:e0:da:50:38:c6:e1:03:93:bb:57:ac:d5:62:
                    7a:8a:b4:1a:41:5d:ca:6f:9b:6d:88:89:e4:e8:d0:
                    e9:ea:91:f4:4a:10:d6:6c:75:7f:da:fd:54:ed:73:
                    1e:fb:04:8f:62:dd:53:0b:8f:d3:38:53:3a:43:cf:
                    ac:db:2a:ec:f5:65:b9:92:16:49:ae:38:8b:56:44:
                    ac:41:0d:d1:cd:3d:c8:55:7b:33:fc:9a:43:19:31:
                    40:ca:46:0e:ae:47:d0:3f:18:7a:f7:22:a4:e4:75:
                    29:9f:28:98:16:e3:62:35:0b:79:dd:bc:86:77:c1:
                    4e:93:96:d7:dc:f1:ca:ab:d6:83:d6:3f:9a:4a:ac:
                    42:01:37:14:4d:ef:32:f0:dd:5c:fb:b1:d8:ba:bb:
                    43:2d:90:a6:c3:6f:df:f9:57:f2:c3:07:85:51:2b:
                    cb:68:7a:86:ff:c1:6b:78:e8:2f:61:8e:ce:5b:28:
                    a8:9f
                Exponent: 65537 (0x10001)
        X509v3 extensions:
            X509v3 Basic Constraints: 
                CA:FALSE
            X509v3 Subject Key Identifier: 
                7C:41:DD:79:CC:6B:CB:E8:AB:5C:05:E6:B3:1F:74:A0:65:19:44:86
            X509v3 Authority Key Identifier: 
                keyid:0E:E8:57:E7:5B:DF:A7:1A:79:64:53:89:BA:45:32:9D:B2:0C:6D:F2
                DirName:/CN=easytls-unit-test
                serial:49:7D:81:43:F9:79:34:B1:63:E8:C1:3D:08:93:3C:BE:36:CB:4D:7F
            X509v3 Extended Key Usage: 
                TLS Web Client Authentication
            X509v3 Key Usage: 
                Digital Signature
    Signature Algorithm: sha256WithRSAEncryption
    Signature Value:
        7b:a8:ca:eb:46:03:40:ac:4c:d1:28:7b:f4:e9:2a:72:f7:08:
        17:8a:10:3b:98:16:14:1e:c6:83:31:6d:02:b1:cb:88:93:21:
        6c:59:f3:66:df:59:7d:8c:16:bd:6a:19:31:66:a1:00:e6:69:
        88:c2:13:6b:11:d6:ca:ed:e7:c3:42:21:a4:86:e1:08:22:a1:
        3b:29:f3:12:df:2c:ce:a1:63:b8:2f:a1:68:68:76:41:c7:19:
        f2:a1:e2:2b:7c:97:e4:3b:8f:6e:36:bd:8a:c6:4e:64:2f:43:
        99:d8:70:01:47:0d:c7:01:e2:a8:ed:af:d5:d2:dc:74:87:42:
        c0:ee:19:50:c0:25:db:15:75:4c:e5:10:07:09:66:6e:75:db:
        29:97:0a:c3:1f:0e:73:d5:ef:47:6c:bb:5a:ff:0d:8d:86:2a:
        2e:dd:22:1c:52:de:d2:00:67:cf:84:a8:12:56:f4:35:8e:de:
        6a:83:42:bd:19:50:c1:25:bd:a6:84:d5:41:84:a5:0b:a7:47:
        a8:2c:7c:23:48:00:ce:7e:42:30:12:8f:ae:46:13:0c:29:97:
        4e:18:1a:d7:d3:43:b6:d0:9e:cc:60:54:4d:9b:4f:1d:65:8c:
        02:dd:46:d8:18:7e:33:fe:9c:e7:eb:b3:e2:44:ce:d1:ff:eb:
        f7:fd:61:2e
-----BEGIN CERTIFICATE-----
MIIDXjCCAkagAwIBAgIRAOhThkWDivEjdRDB7Dpw3/AwDQYJKoZIhvcNAQELBQAw
HDEaMBgGA1UEAwwRZWFzeXRscy11bml0LXRlc3QwHhcNMjIwMjI2MDAwODE1WhcN
MjQwNTMxMDAwODE1WjAOMQwwCgYDVQQDDANjMDkwggEiMA0GCSqGSIb3DQEBAQUA
A4IBDwAwggEKAoIBAQDmJasOzemLN5yQKOHk3C07btLhLKIEl7Eylvb0gR36TGW+
rBwY4efXkBLjUW3dqQ+V0X4CxppOdpqyhoPn2xbCQe5GJ/9H3An/g7JX4NpQOMbh
A5O7V6zVYnqKtBpBXcpvm22IieTo0OnqkfRKENZsdX/a/VTtcx77BI9i3VMLj9M4
UzpDz6zbKuz1ZbmSFkmuOItWRKxBDdHNPchVezP8mkMZMUDKRg6uR9A/GHr3IqTk
dSmfKJgW42I1C3ndvIZ3wU6Tltfc8cqr1oPWP5pKrEIBNxRN7zLw3Vz7sdi6u0Mt
kKbDb9/5V/LDB4VRK8toeob/wWt46C9hjs5bKKifAgMBAAGjgagwgaUwCQYDVR0T
BAIwADAdBgNVHQ4EFgQUfEHdecxry+irXAXmsx90oGUZRIYwVwYDVR0jBFAwToAU
DuhX51vfpxp5ZFOJukUynbIMbfKhIKQeMBwxGjAYBgNVBAMMEWVhc3l0bHMtdW5p
dC10ZXN0ghRJfYFD+Xk0sWPowT0Ikzy+NstNfzATBgNVHSUEDDAKBggrBgEFBQcD
AjALBgNVHQ8EBAMCB4AwDQYJKoZIhvcNAQELBQADggEBAHuoyutGA0CsTNEoe/Tp
KnL3CBeKEDuYFhQexoMxbQKxy4iTIWxZ82bfWX2MFr1qGTFmoQDmaYjCE2sR1srt
58NCIaSG4QgioTsp8xLfLM6hY7gvoWhodkHHGfKh4it8l+Q7j242vYrGTmQvQ5nY
cAFHDccB4qjtr9XS3HSHQsDuGVDAJdsVdUzlEAcJZm512ymXCsMfDnPV70dsu1r/
DY2GKi7dIhxS3tIAZ8+EqBJW9DWO3mqDQr0ZUMElvaaE1UGEpQunR6gsfCNIAM5+
QjASj65GEwwpl04YGtfTQ7bQnsxgVE2bTx1ljALdRtgYfjP+nOfrs+JEztH/6/f9
YS4=
-----END CERTIFICATE-----
