Certificate:
    Data:
        Version: 3 (0x2)
        Serial Number:
            8a:36:cd:ed:9e:2a:42:b6:96:3e:eb:76:90:b0:ed:ed
        Signature Algorithm: sha256WithRSAEncryption
        Issuer: CN=easytls-unit-test
        Validity
            Not Before: Feb 26 00:08:14 2022 GMT
            Not After : May 31 00:08:14 2024 GMT
        Subject: CN=c08
        Subject Public Key Info:
            Public Key Algorithm: rsaEncryption
                Public-Key: (2048 bit)
                Modulus:
                    00:bc:ac:12:33:0e:64:93:70:65:fc:55:ea:ab:fd:
                    8b:0f:b1:e3:54:a3:b9:85:10:51:2f:88:49:4b:93:
                    f5:e7:e1:7f:a3:1b:e1:a2:a3:e3:71:5a:c4:21:39:
                    85:74:3a:49:93:1f:ad:48:c0:82:19:e8:61:05:4c:
                    e1:a4:2f:8a:68:14:39:c7:2e:d8:30:2e:00:d3:0c:
                    eb:97:ff:05:02:40:dc:cc:d0:0e:a3:76:48:f6:57:
                    5c:4b:74:e3:00:f5:4a:bc:bc:bc:3a:33:f5:a3:ff:
                    9a:4c:8b:b2:a7:3a:34:d3:67:8c:13:54:0b:9b:9c:
                    34:1f:fd:d7:76:d5:5a:0a:3d:7f:27:e1:42:ab:73:
                    90:7a:ef:d4:91:4c:ef:a4:20:a0:65:10:49:06:b0:
                    70:31:8b:2e:d0:e0:8d:3c:42:ca:a0:1c:8a:00:68:
                    17:d1:3b:ba:d7:04:cf:a0:c0:39:3b:e9:66:a2:5d:
                    92:5f:ca:f8:5d:ea:d1:03:44:0f:65:52:79:af:42:
                    a5:c3:fa:28:b2:79:af:e7:1f:5e:c9:ec:90:1b:1b:
                    0f:12:9d:14:07:93:11:ee:d5:35:41:0a:f1:be:77:
                    78:b7:c3:d9:0b:3a:b3:18:aa:28:a5:6e:28:b2:a9:
                    30:c5:f5:33:cf:72:a5:41:81:d6:c5:bb:76:4b:2a:
                    2f:73
                Exponent: 65537 (0x10001)
        X509v3 extensions:
            X509v3 Basic Constraints: 
                CA:FALSE
            X509v3 Subject Key Identifier: 
                3F:2A:33:16:74:85:97:78:BA:15:04:B4:45:A5:26:C7:A7:F7:01:2D
            X509v3 Authority Key Identifier: 
                keyid:0E:E8:57:E7:5B:DF:A7:1A:79:64:53:89:BA:45:32:9D:B2:0C:6D:F2
                DirName:/CN=easytls-unit-test
                serial:49:7D:81:43:F9:79:34:B1:63:E8:C1:3D:08:93:3C:BE:36:CB:4D:7F
            X509v3 Extended Key Usage: 
                TLS Web Client Authentication
            X509v3 Key Usage: 
                Digital Signature
    Signature Algorithm: sha256WithRSAEncryption
    Signature Value:
        00:0e:53:0b:f6:0e:8f:bb:63:70:72:61:09:7f:0b:5f:f4:d9:
        eb:d6:e2:9a:a7:b6:2e:8e:6f:dc:42:4d:84:04:3a:7a:9d:da:
        e8:f3:1a:40:78:5b:31:ee:2a:2d:42:5d:78:15:af:ad:9a:3d:
        c1:33:21:d4:20:9b:29:89:bd:02:7e:cc:ca:cf:0a:f2:e5:2c:
        e2:52:d1:de:a9:38:80:8f:69:86:f2:ce:b6:ee:26:1e:56:40:
        09:69:55:81:61:67:1f:0b:f3:1a:49:38:4c:ca:66:5a:ad:b2:
        7d:23:0b:ba:7a:49:fe:c9:e0:bb:20:ce:89:e4:3c:3c:70:75:
        3f:a4:32:2b:58:b5:1f:93:f1:4d:2e:84:fc:d1:a5:c1:19:18:
        b7:e2:83:c0:f4:30:3f:56:36:f1:24:4a:f5:ec:c8:ee:55:e8:
        89:2e:e4:68:e4:db:c1:9a:a1:ee:ff:2b:4a:4a:6d:ae:27:04:
        61:fb:c4:3b:8a:63:49:45:7e:2a:60:b5:94:4f:12:af:a6:21:
        02:51:1a:92:a3:d5:41:45:44:ec:61:b6:d5:37:9b:85:1c:84:
        a8:7f:9c:03:11:fe:22:b6:d7:c6:6d:cc:b8:89:d8:6d:d3:ac:
        a2:7f:7d:42:55:73:d0:2d:98:b6:71:72:0f:81:e7:9e:f1:60:
        f6:89:bb:31
-----BEGIN CERTIFICATE-----
MIIDXjCCAkagAwIBAgIRAIo2ze2eKkK2lj7rdpCw7e0wDQYJKoZIhvcNAQELBQAw
HDEaMBgGA1UEAwwRZWFzeXRscy11bml0LXRlc3QwHhcNMjIwMjI2MDAwODE0WhcN
MjQwNTMxMDAwODE0WjAOMQwwCgYDVQQDDANjMDgwggEiMA0GCSqGSIb3DQEBAQUA
A4IBDwAwggEKAoIBAQC8rBIzDmSTcGX8Veqr/YsPseNUo7mFEFEviElLk/Xn4X+j
G+Gio+NxWsQhOYV0OkmTH61IwIIZ6GEFTOGkL4poFDnHLtgwLgDTDOuX/wUCQNzM
0A6jdkj2V1xLdOMA9Uq8vLw6M/Wj/5pMi7KnOjTTZ4wTVAubnDQf/dd21VoKPX8n
4UKrc5B679SRTO+kIKBlEEkGsHAxiy7Q4I08QsqgHIoAaBfRO7rXBM+gwDk76Wai
XZJfyvhd6tEDRA9lUnmvQqXD+iiyea/nH17J7JAbGw8SnRQHkxHu1TVBCvG+d3i3
w9kLOrMYqiilbiiyqTDF9TPPcqVBgdbFu3ZLKi9zAgMBAAGjgagwgaUwCQYDVR0T
BAIwADAdBgNVHQ4EFgQUPyozFnSFl3i6FQS0RaUmx6f3AS0wVwYDVR0jBFAwToAU
DuhX51vfpxp5ZFOJukUynbIMbfKhIKQeMBwxGjAYBgNVBAMMEWVhc3l0bHMtdW5p
dC10ZXN0ghRJfYFD+Xk0sWPowT0Ikzy+NstNfzATBgNVHSUEDDAKBggrBgEFBQcD
AjALBgNVHQ8EBAMCB4AwDQYJKoZIhvcNAQELBQADggEBAAAOUwv2Do+7Y3ByYQl/
C1/02evW4pqnti6Ob9xCTYQEOnqd2ujzGkB4WzHuKi1CXXgVr62aPcEzIdQgmymJ
vQJ+zMrPCvLlLOJS0d6pOICPaYbyzrbuJh5WQAlpVYFhZx8L8xpJOEzKZlqtsn0j
C7p6Sf7J4LsgzonkPDxwdT+kMitYtR+T8U0uhPzRpcEZGLfig8D0MD9WNvEkSvXs
yO5V6Iku5Gjk28Gaoe7/K0pKba4nBGH7xDuKY0lFfipgtZRPEq+mIQJRGpKj1UFF
ROxhttU3m4UchKh/nAMR/iK218ZtzLiJ2G3TrKJ/fUJVc9AtmLZxcg+B557xYPaJ
uzE=
-----END CERTIFICATE-----
