Certificate:
    Data:
        Version: 3 (0x2)
        Serial Number:
            06:8a:5e:e8:a6:31:00:a7:a3:25:25:43:c5:40:e7:1d
        Signature Algorithm: sha256WithRSAEncryption
        Issuer: CN=easytls-unit-test
        Validity
            Not Before: Feb 26 00:19:06 2022 GMT
            Not After : May 31 00:19:06 2024 GMT
        Subject: CN=c-auth
        Subject Public Key Info:
            Public Key Algorithm: rsaEncryption
                Public-Key: (2048 bit)
                Modulus:
                    00:db:9e:ae:5b:40:65:06:4e:b8:10:a5:56:f3:6d:
                    17:98:a8:a9:78:e1:7f:93:0e:75:c1:22:0f:78:76:
                    8d:74:a8:7d:b8:e4:78:af:da:ca:d2:99:c6:30:24:
                    5e:49:05:2e:4b:bc:bc:e7:24:3b:57:e9:cd:01:e8:
                    e0:c9:83:80:24:3f:9b:68:6c:99:7b:4f:71:b9:3a:
                    a5:a4:39:f7:a0:62:2c:fb:38:5f:ca:fc:cc:6e:e3:
                    d1:a0:04:9f:dd:7e:87:f7:fd:b8:22:c2:59:e9:78:
                    fa:7e:8e:6c:e7:4a:bc:76:83:0b:58:c3:f8:7a:ec:
                    54:20:10:aa:c3:7e:a2:77:fd:5e:67:3a:00:76:99:
                    e4:77:34:18:7d:7a:20:78:be:03:79:7a:21:a9:c3:
                    ef:54:bf:1f:db:0c:69:db:df:d1:d7:a0:92:90:d0:
                    03:c4:fa:4b:69:82:90:2e:9d:91:33:50:35:0d:23:
                    46:2c:24:4d:44:0f:b4:44:38:06:5a:62:3c:d3:f2:
                    5b:3d:8b:1e:30:be:c3:02:2d:fa:bf:e5:eb:be:6e:
                    64:3d:d4:a1:47:63:38:85:05:b5:de:ad:07:fb:95:
                    05:c8:cd:f3:4b:a7:ea:e4:4e:b9:2a:c7:87:62:14:
                    47:38:0e:a1:7f:d4:a2:cb:36:8d:92:52:8a:1c:89:
                    97:7d
                Exponent: 65537 (0x10001)
        X509v3 extensions:
            X509v3 Basic Constraints: 
                CA:FALSE
            X509v3 Subject Key Identifier: 
                6F:80:0C:D9:F0:58:D5:D2:AE:CB:E8:B6:A3:DD:6A:29:B2:B8:1A:B5
            X509v3 Authority Key Identifier: 
                keyid:7F:DB:A7:04:5F:A0:23:1F:C0:6E:CD:55:F0:15:C6:27:55:BC:80:B8
                DirName:/CN=easytls-unit-test
                serial:25:21:EE:52:13:98:94:DC:17:DA:54:03:39:A8:CB:E2:42:92:23:4D
            X509v3 Extended Key Usage: 
                TLS Web Client Authentication
            X509v3 Key Usage: 
                Digital Signature
    Signature Algorithm: sha256WithRSAEncryption
    Signature Value:
        0f:79:7e:76:94:03:12:01:a6:bd:bc:e3:98:d2:17:9e:45:06:
        e7:1b:9a:38:d7:14:b9:98:82:58:da:e4:93:e6:b5:f5:36:87:
        0f:13:79:0f:83:d7:77:ea:7a:c6:13:16:d9:8a:8f:2d:3a:91:
        bb:59:48:8f:a5:37:3a:42:b7:66:00:fb:bb:82:a1:3d:69:65:
        7c:92:15:b6:68:c2:d7:a8:4e:df:1a:01:2e:22:e5:87:1e:e5:
        e2:78:d3:bc:f6:c5:bf:80:d4:5c:f3:65:4e:f2:30:49:9f:30:
        0d:77:23:b0:a9:66:d3:b3:d8:79:a9:69:3f:ac:cb:01:b9:2c:
        15:de:99:e6:d4:7f:2a:74:db:02:ec:44:31:d0:7b:37:b2:fd:
        42:0d:8f:21:ce:78:31:94:b5:e5:ea:b7:93:80:57:7c:cc:c5:
        e8:fd:57:95:c9:76:a3:4a:94:10:ba:4f:c3:57:75:d8:9e:54:
        c7:fd:98:c6:aa:70:a8:d4:f6:d7:ae:77:af:77:c7:bf:f3:81:
        cb:d3:7c:64:10:57:9f:19:ea:c6:60:00:9c:8e:db:49:c7:2a:
        9e:34:8c:e2:9f:c8:1b:40:9f:fe:76:a6:41:15:f7:ae:2b:26:
        0e:13:06:8d:f0:9c:9b:c7:e8:0f:b6:97:e8:d3:52:29:7c:dd:
        1b:a6:2a:33
-----BEGIN CERTIFICATE-----
MIIDYDCCAkigAwIBAgIQBope6KYxAKejJSVDxUDnHTANBgkqhkiG9w0BAQsFADAc
MRowGAYDVQQDDBFlYXN5dGxzLXVuaXQtdGVzdDAeFw0yMjAyMjYwMDE5MDZaFw0y
NDA1MzEwMDE5MDZaMBExDzANBgNVBAMMBmMtYXV0aDCCASIwDQYJKoZIhvcNAQEB
BQADggEPADCCAQoCggEBANuerltAZQZOuBClVvNtF5ioqXjhf5MOdcEiD3h2jXSo
fbjkeK/aytKZxjAkXkkFLku8vOckO1fpzQHo4MmDgCQ/m2hsmXtPcbk6paQ596Bi
LPs4X8r8zG7j0aAEn91+h/f9uCLCWel4+n6ObOdKvHaDC1jD+HrsVCAQqsN+onf9
Xmc6AHaZ5Hc0GH16IHi+A3l6IanD71S/H9sMadvf0degkpDQA8T6S2mCkC6dkTNQ
NQ0jRiwkTUQPtEQ4BlpiPNPyWz2LHjC+wwIt+r/l675uZD3UoUdjOIUFtd6tB/uV
BcjN80un6uROuSrHh2IURzgOoX/Uoss2jZJSihyJl30CAwEAAaOBqDCBpTAJBgNV
HRMEAjAAMB0GA1UdDgQWBBRvgAzZ8FjV0q7L6Laj3WopsrgatTBXBgNVHSMEUDBO
gBR/26cEX6AjH8BuzVXwFcYnVbyAuKEgpB4wHDEaMBgGA1UEAwwRZWFzeXRscy11
bml0LXRlc3SCFCUh7lITmJTcF9pUAzmoy+JCkiNNMBMGA1UdJQQMMAoGCCsGAQUF
BwMCMAsGA1UdDwQEAwIHgDANBgkqhkiG9w0BAQsFAAOCAQEAD3l+dpQDEgGmvbzj
mNIXnkUG5xuaONcUuZiCWNrkk+a19TaHDxN5D4PXd+p6xhMW2YqPLTqRu1lIj6U3
OkK3ZgD7u4KhPWllfJIVtmjC16hO3xoBLiLlhx7l4njTvPbFv4DUXPNlTvIwSZ8w
DXcjsKlm07PYealpP6zLAbksFd6Z5tR/KnTbAuxEMdB7N7L9Qg2PIc54MZS15eq3
k4BXfMzF6P1Xlcl2o0qUELpPw1d12J5Ux/2YxqpwqNT21653r3fHv/OBy9N8ZBBX
nxnqxmAAnI7bSccqnjSM4p/IG0Cf/namQRX3rismDhMGjfCcm8foD7aX6NNSKXzd
G6YqMw==
-----END CERTIFICATE-----
