Certificate:
    Data:
        Version: 3 (0x2)
        Serial Number:
            62:70:76:b4:40:5f:3c:f5:ed:ef:51:d9:ec:be:d6:03
        Signature Algorithm: sha256WithRSAEncryption
        Issuer: CN=easytls-unit-test
        Validity
            Not Before: Feb 26 00:19:08 2022 GMT
            Not After : May 31 00:19:08 2024 GMT
        Subject: CN=c05
        Subject Public Key Info:
            Public Key Algorithm: rsaEncryption
                Public-Key: (2048 bit)
                Modulus:
                    00:ef:79:d0:e2:3d:61:40:67:5f:83:fc:c9:90:33:
                    88:9e:97:bf:8a:2f:90:41:85:2f:dd:9a:93:cf:14:
                    ee:d9:99:c8:a6:dd:b9:b5:df:50:51:66:e0:b1:36:
                    86:24:55:51:43:5e:d6:f2:86:48:b7:d6:68:55:17:
                    df:e4:3e:42:20:d3:e4:e4:1e:42:12:13:f7:95:eb:
                    74:42:fd:99:18:50:b3:fd:a9:16:63:f5:b1:dd:fb:
                    56:85:f3:b9:ca:47:d0:0d:17:e3:c0:e8:40:79:d7:
                    28:94:1d:3e:3b:cd:c6:6b:2e:12:80:8f:c6:23:87:
                    e7:20:cb:55:59:91:15:08:2e:60:32:8d:5e:31:7f:
                    c4:a1:a3:76:98:34:91:7f:4a:10:01:71:37:fa:86:
                    64:b5:f8:bc:25:f9:e4:3c:ef:3c:3a:80:cb:04:b5:
                    f3:2e:e1:aa:e5:9c:50:46:5b:5b:29:7a:45:58:85:
                    2b:7e:92:de:4e:0f:28:98:10:89:e1:f9:4c:bc:ed:
                    ea:7f:f9:ed:86:26:8b:a6:19:f0:ff:7d:68:c8:96:
                    ab:f6:ac:bb:ec:22:9e:59:85:b8:a0:aa:23:17:d8:
                    ce:94:ec:fa:09:a2:cb:18:58:80:cc:07:ef:c7:52:
                    de:73:e9:4b:b0:ee:7d:2e:c0:15:78:60:2a:f8:a5:
                    d8:25
                Exponent: 65537 (0x10001)
        X509v3 extensions:
            X509v3 Basic Constraints: 
                CA:FALSE
            X509v3 Subject Key Identifier: 
                C1:D2:0F:79:48:05:C0:B6:40:53:E4:01:B0:59:B6:31:A9:02:B8:60
            X509v3 Authority Key Identifier: 
                keyid:7F:DB:A7:04:5F:A0:23:1F:C0:6E:CD:55:F0:15:C6:27:55:BC:80:B8
                DirName:/CN=easytls-unit-test
                serial:25:21:EE:52:13:98:94:DC:17:DA:54:03:39:A8:CB:E2:42:92:23:4D
            X509v3 Extended Key Usage: 
                TLS Web Client Authentication
            X509v3 Key Usage: 
                Digital Signature
    Signature Algorithm: sha256WithRSAEncryption
    Signature Value:
        ac:2a:3d:44:ff:47:2d:f6:1a:d9:07:05:3f:1a:cf:7f:37:0b:
        98:63:31:45:09:dd:38:83:4b:0e:6a:71:fb:0a:47:2b:39:0a:
        ad:4a:bc:c7:3f:7e:62:2f:45:51:b9:46:84:dd:d1:89:4f:4b:
        3f:b3:c2:58:55:70:25:12:4f:df:d1:f9:52:60:2b:31:c1:03:
        30:ef:f4:c4:37:0c:c8:a4:92:89:e6:57:72:d4:68:ec:af:93:
        40:0f:5d:a8:fc:19:d9:90:16:3b:10:74:55:eb:cc:a0:8f:fa:
        1c:b6:84:a9:83:12:ff:3f:3f:13:25:dc:5f:c5:f5:31:48:f9:
        e5:ed:ed:89:44:52:97:65:cd:dc:a6:58:03:02:1f:6d:59:ca:
        e0:15:1c:c4:8d:df:58:e6:9f:06:66:7a:2f:42:55:4a:a1:f3:
        db:58:f0:2b:c6:52:fc:b2:55:ca:75:27:3c:31:fa:6e:fc:aa:
        11:06:e1:de:4a:77:d2:79:d2:76:e8:a7:cf:36:24:d7:17:89:
        a9:71:0f:cc:75:eb:d5:b6:1f:5c:52:b0:2f:76:e0:02:34:d6:
        b5:ea:e8:e8:95:c2:f8:fd:5e:2d:6e:eb:ee:f5:e7:02:e1:86:
        51:c6:b4:e5:d8:97:9d:47:bb:6e:5a:3c:38:87:28:e4:74:e2:
        40:55:30:32
-----BEGIN CERTIFICATE-----
MIIDXTCCAkWgAwIBAgIQYnB2tEBfPPXt71HZ7L7WAzANBgkqhkiG9w0BAQsFADAc
MRowGAYDVQQDDBFlYXN5dGxzLXVuaXQtdGVzdDAeFw0yMjAyMjYwMDE5MDhaFw0y
NDA1MzEwMDE5MDhaMA4xDDAKBgNVBAMMA2MwNTCCASIwDQYJKoZIhvcNAQEBBQAD
ggEPADCCAQoCggEBAO950OI9YUBnX4P8yZAziJ6Xv4ovkEGFL92ak88U7tmZyKbd
ubXfUFFm4LE2hiRVUUNe1vKGSLfWaFUX3+Q+QiDT5OQeQhIT95XrdEL9mRhQs/2p
FmP1sd37VoXzucpH0A0X48DoQHnXKJQdPjvNxmsuEoCPxiOH5yDLVVmRFQguYDKN
XjF/xKGjdpg0kX9KEAFxN/qGZLX4vCX55DzvPDqAywS18y7hquWcUEZbWyl6RViF
K36S3k4PKJgQieH5TLzt6n/57YYmi6YZ8P99aMiWq/asu+winlmFuKCqIxfYzpTs
+gmiyxhYgMwH78dS3nPpS7DufS7AFXhgKvil2CUCAwEAAaOBqDCBpTAJBgNVHRME
AjAAMB0GA1UdDgQWBBTB0g95SAXAtkBT5AGwWbYxqQK4YDBXBgNVHSMEUDBOgBR/
26cEX6AjH8BuzVXwFcYnVbyAuKEgpB4wHDEaMBgGA1UEAwwRZWFzeXRscy11bml0
LXRlc3SCFCUh7lITmJTcF9pUAzmoy+JCkiNNMBMGA1UdJQQMMAoGCCsGAQUFBwMC
MAsGA1UdDwQEAwIHgDANBgkqhkiG9w0BAQsFAAOCAQEArCo9RP9HLfYa2QcFPxrP
fzcLmGMxRQndOINLDmpx+wpHKzkKrUq8xz9+Yi9FUblGhN3RiU9LP7PCWFVwJRJP
39H5UmArMcEDMO/0xDcMyKSSieZXctRo7K+TQA9dqPwZ2ZAWOxB0VevMoI/6HLaE
qYMS/z8/EyXcX8X1MUj55e3tiURSl2XN3KZYAwIfbVnK4BUcxI3fWOafBmZ6L0JV
SqHz21jwK8ZS/LJVynUnPDH6bvyqEQbh3kp30nnSduinzzYk1xeJqXEPzHXr1bYf
XFKwL3bgAjTWtero6JXC+P1eLW7r7vXnAuGGUca05diXnUe7blo8OIco5HTiQFUw
Mg==
-----END CERTIFICATE-----
