Certificate:
    Data:
        Version: 3 (0x2)
        Serial Number:
            8d:be:76:5e:28:ef:ae:3e:72:1f:56:5c:58:fd:75:de
        Signature Algorithm: sha256WithRSAEncryption
        Issuer: CN=easytls-unit-test
        Validity
            Not Before: Feb 26 00:19:11 2022 GMT
            Not After : May 31 00:19:11 2024 GMT
        Subject: CN=cw01
        Subject Public Key Info:
            Public Key Algorithm: rsaEncryption
                Public-Key: (2048 bit)
                Modulus:
                    00:b0:8c:54:6a:ef:c7:ce:03:a6:98:9e:34:c7:c8:
                    db:b3:ba:a9:c4:0f:6f:31:33:f7:9e:c5:a0:48:60:
                    6f:3d:24:48:0d:66:68:3e:49:64:da:93:74:24:bf:
                    70:b7:77:f3:fb:1f:59:b8:8c:9c:a9:87:e8:d2:14:
                    fb:e8:c3:24:8a:13:5e:6a:28:49:c5:6c:88:8e:74:
                    6e:b6:b9:07:4e:f0:ad:62:83:52:5a:e7:b4:30:04:
                    91:aa:74:8c:b1:6b:a3:42:14:5b:a5:c9:96:ad:bf:
                    d3:62:c4:a4:63:6c:27:93:52:2f:60:9a:fa:12:60:
                    2e:3b:1c:70:ab:43:cc:89:b3:ed:38:b4:63:80:54:
                    21:81:49:2a:e0:7b:3b:9b:a7:25:80:00:dc:a6:90:
                    f4:4a:51:2e:d0:f2:79:35:5e:1f:a5:ee:2f:b1:18:
                    be:32:7a:94:d6:d8:fc:50:62:ce:9d:0d:c0:ee:a0:
                    d3:b8:5e:12:15:d2:fe:cc:46:d1:78:6d:42:d1:57:
                    95:cf:0a:6e:9f:fa:96:a3:22:38:77:53:83:39:e8:
                    f5:7b:fe:48:17:b5:65:3d:94:69:c2:63:5d:7a:be:
                    3c:eb:04:e0:82:f0:ae:46:0b:b3:5c:c7:b9:9a:1b:
                    89:32:51:ab:1c:b6:da:b1:fa:e8:8e:e1:64:15:85:
                    58:51
                Exponent: 65537 (0x10001)
        X509v3 extensions:
            X509v3 Basic Constraints: 
                CA:FALSE
            X509v3 Subject Key Identifier: 
                74:2B:7D:9B:36:02:59:BA:15:60:A0:1D:52:D4:B7:0D:64:F1:27:13
            X509v3 Authority Key Identifier: 
                keyid:7F:DB:A7:04:5F:A0:23:1F:C0:6E:CD:55:F0:15:C6:27:55:BC:80:B8
                DirName:/CN=easytls-unit-test
                serial:25:21:EE:52:13:98:94:DC:17:DA:54:03:39:A8:CB:E2:42:92:23:4D
            X509v3 Extended Key Usage: 
                TLS Web Client Authentication
            X509v3 Key Usage: 
                Digital Signature
    Signature Algorithm: sha256WithRSAEncryption
    Signature Value:
        2d:7e:77:d0:47:63:58:fb:75:6c:12:c2:da:34:89:2a:3d:48:
        a7:c0:03:3c:76:0f:2b:ea:50:ec:c8:48:e1:a4:af:e7:ac:21:
        07:ed:22:86:27:30:2b:15:04:70:88:09:e4:fc:3d:1f:6c:31:
        d8:7d:50:cd:c8:1c:b3:bd:e0:ae:b3:d8:84:53:d6:54:9e:27:
        2e:4a:43:8c:4f:a7:1c:05:f3:4d:7f:99:7e:05:8b:43:9c:17:
        09:76:a3:f2:0b:b8:5a:82:2b:76:34:29:b2:e4:0a:68:db:14:
        83:30:fb:22:0f:9a:a5:d9:a1:f4:6f:d4:26:8d:a7:08:2d:09:
        89:d7:8a:c3:d8:24:a7:ed:2c:5a:90:f6:33:7b:0f:19:40:50:
        27:30:15:8e:f1:7a:58:10:96:42:51:99:8a:8f:78:22:24:a0:
        83:e4:06:b1:d3:13:7a:03:c3:15:ef:ad:b8:23:95:1c:82:08:
        98:79:9c:cf:21:bc:6c:d6:9b:0b:75:bb:a5:b2:47:69:7c:d3:
        88:cb:6f:a6:94:48:ff:56:99:5e:13:13:ac:95:3b:d8:fb:7f:
        f4:8b:0d:bd:13:43:a4:a5:29:35:e7:25:3f:2a:65:74:82:9f:
        0f:f2:92:a4:56:47:18:58:fd:7d:94:b5:b4:4e:b5:c7:63:d5:
        eb:21:b0:1d
-----BEGIN CERTIFICATE-----
MIIDXzCCAkegAwIBAgIRAI2+dl4o764+ch9WXFj9dd4wDQYJKoZIhvcNAQELBQAw
HDEaMBgGA1UEAwwRZWFzeXRscy11bml0LXRlc3QwHhcNMjIwMjI2MDAxOTExWhcN
MjQwNTMxMDAxOTExWjAPMQ0wCwYDVQQDDARjdzAxMIIBIjANBgkqhkiG9w0BAQEF
AAOCAQ8AMIIBCgKCAQEAsIxUau/HzgOmmJ40x8jbs7qpxA9vMTP3nsWgSGBvPSRI
DWZoPklk2pN0JL9wt3fz+x9ZuIycqYfo0hT76MMkihNeaihJxWyIjnRutrkHTvCt
YoNSWue0MASRqnSMsWujQhRbpcmWrb/TYsSkY2wnk1IvYJr6EmAuOxxwq0PMibPt
OLRjgFQhgUkq4Hs7m6clgADcppD0SlEu0PJ5NV4fpe4vsRi+MnqU1tj8UGLOnQ3A
7qDTuF4SFdL+zEbReG1C0VeVzwpun/qWoyI4d1ODOej1e/5IF7VlPZRpwmNder48
6wTggvCuRguzXMe5mhuJMlGrHLbasfrojuFkFYVYUQIDAQABo4GoMIGlMAkGA1Ud
EwQCMAAwHQYDVR0OBBYEFHQrfZs2Alm6FWCgHVLUtw1k8ScTMFcGA1UdIwRQME6A
FH/bpwRfoCMfwG7NVfAVxidVvIC4oSCkHjAcMRowGAYDVQQDDBFlYXN5dGxzLXVu
aXQtdGVzdIIUJSHuUhOYlNwX2lQDOajL4kKSI00wEwYDVR0lBAwwCgYIKwYBBQUH
AwIwCwYDVR0PBAQDAgeAMA0GCSqGSIb3DQEBCwUAA4IBAQAtfnfQR2NY+3VsEsLa
NIkqPUinwAM8dg8r6lDsyEjhpK/nrCEH7SKGJzArFQRwiAnk/D0fbDHYfVDNyByz
veCus9iEU9ZUnicuSkOMT6ccBfNNf5l+BYtDnBcJdqPyC7hagit2NCmy5Apo2xSD
MPsiD5ql2aH0b9QmjacILQmJ14rD2CSn7SxakPYzew8ZQFAnMBWO8XpYEJZCUZmK
j3giJKCD5Aax0xN6A8MV7624I5UcggiYeZzPIbxs1psLdbulskdpfNOIy2+mlEj/
VpleExOslTvY+3/0iw29E0OkpSk15yU/KmV0gp8P8pKkVkcYWP19lLW0TrXHY9Xr
IbAd
-----END CERTIFICATE-----
