Certificate:
    Data:
        Version: 3 (0x2)
        Serial Number:
            a3:a5:16:e5:52:72:d7:72:dd:f5:e2:47:ed:4a:4e:3f
        Signature Algorithm: sha256WithRSAEncryption
        Issuer: CN=easytls-unit-test
        Validity
            Not Before: Feb 26 00:19:07 2022 GMT
            Not After : May 31 00:19:07 2024 GMT
        Subject: CN=c01
        Subject Public Key Info:
            Public Key Algorithm: rsaEncryption
                Public-Key: (2048 bit)
                Modulus:
                    00:db:4c:48:39:d9:6b:fa:4e:b3:0e:72:db:31:ac:
                    05:ad:f4:11:50:35:f1:14:f2:5f:ba:f7:ae:c9:81:
                    3d:fa:7a:12:4e:be:2a:12:ff:9f:c3:b2:59:44:dd:
                    9d:33:08:8e:5b:09:fc:55:74:c6:a1:61:32:0f:3a:
                    72:36:50:03:69:e2:cd:af:01:f7:af:c3:d0:fc:dd:
                    43:f6:cc:ee:3c:b1:57:a1:83:c0:05:e0:63:a9:bd:
                    ea:c2:58:3c:bc:ee:74:d8:52:e2:81:ce:97:52:75:
                    dc:96:0e:f3:81:5c:9d:74:5c:ac:48:01:cb:39:b7:
                    6d:fe:22:70:66:ec:90:9a:b9:1a:00:5a:e1:c5:81:
                    b2:71:07:7e:75:0b:2f:54:47:31:b3:00:ee:31:0e:
                    a5:09:da:6f:37:4b:c7:8f:af:03:96:3a:16:e9:21:
                    24:9f:2e:31:7e:3c:f4:d9:82:c6:83:9e:0c:e7:2f:
                    bc:d2:a5:cd:c7:e9:7a:b1:c3:38:3e:c2:c6:68:ad:
                    8e:d1:13:3b:2e:43:7c:49:08:22:bf:8b:a7:ab:b8:
                    64:6d:27:41:ff:dc:93:88:c6:c0:0c:c4:6e:d3:b5:
                    37:10:93:61:d7:e5:be:75:85:99:23:c5:41:2a:7b:
                    ff:04:cf:e4:aa:d4:2b:95:65:b9:e8:d1:68:c4:a9:
                    4d:15
                Exponent: 65537 (0x10001)
        X509v3 extensions:
            X509v3 Basic Constraints: 
                CA:FALSE
            X509v3 Subject Key Identifier: 
                38:F7:4E:7E:92:4A:A5:6A:55:FB:5C:98:84:6B:47:5A:D9:16:50:17
            X509v3 Authority Key Identifier: 
                keyid:7F:DB:A7:04:5F:A0:23:1F:C0:6E:CD:55:F0:15:C6:27:55:BC:80:B8
                DirName:/CN=easytls-unit-test
                serial:25:21:EE:52:13:98:94:DC:17:DA:54:03:39:A8:CB:E2:42:92:23:4D
            X509v3 Extended Key Usage: 
                TLS Web Client Authentication
            X509v3 Key Usage: 
                Digital Signature
    Signature Algorithm: sha256WithRSAEncryption
    Signature Value:
        2f:ae:c0:cc:2b:58:cc:58:53:ae:2b:05:d6:22:d8:8a:6b:48:
        68:af:8d:16:43:7b:be:89:9a:08:18:b4:37:9a:0e:fe:57:f7:
        de:18:50:60:21:98:8f:3c:bd:c0:bf:7a:d3:76:3f:4c:46:7c:
        c4:bf:5c:d4:19:01:d9:ac:44:e9:27:aa:a2:08:44:21:20:10:
        48:05:44:47:7d:39:88:10:77:fc:b7:6a:93:12:ec:f8:c2:34:
        2c:ca:5e:66:3c:80:81:bb:da:fe:2a:6b:48:2c:31:2d:ff:b8:
        2e:1a:ed:40:fb:6f:f9:68:7a:d2:9d:d3:37:01:79:d3:18:5a:
        1e:17:eb:e0:71:d7:95:18:fa:b6:8d:e0:02:d3:25:a5:7e:73:
        ed:1c:93:a2:23:2c:44:9e:bf:86:1d:1b:ff:39:7a:fa:36:b0:
        76:bb:fe:50:6f:51:a4:0c:f7:81:72:72:13:c8:cb:2d:03:9d:
        07:f9:e3:08:bd:69:7e:54:52:57:4a:f7:e5:8e:c1:d4:34:50:
        a2:16:a4:74:38:1e:56:bf:37:86:a7:df:91:db:65:4d:89:55:
        ae:c0:65:f7:df:b9:36:dd:67:2b:3e:b2:16:cb:76:02:9f:40:
        7a:74:95:53:63:98:d3:a2:da:da:fb:75:c7:32:22:99:dc:3e:
        7f:a2:2e:4c
-----BEGIN CERTIFICATE-----
MIIDXjCCAkagAwIBAgIRAKOlFuVSctdy3fXiR+1KTj8wDQYJKoZIhvcNAQELBQAw
HDEaMBgGA1UEAwwRZWFzeXRscy11bml0LXRlc3QwHhcNMjIwMjI2MDAxOTA3WhcN
MjQwNTMxMDAxOTA3WjAOMQwwCgYDVQQDDANjMDEwggEiMA0GCSqGSIb3DQEBAQUA
A4IBDwAwggEKAoIBAQDbTEg52Wv6TrMOctsxrAWt9BFQNfEU8l+6967JgT36ehJO
vioS/5/DsllE3Z0zCI5bCfxVdMahYTIPOnI2UANp4s2vAfevw9D83UP2zO48sVeh
g8AF4GOpverCWDy87nTYUuKBzpdSddyWDvOBXJ10XKxIAcs5t23+InBm7JCauRoA
WuHFgbJxB351Cy9URzGzAO4xDqUJ2m83S8ePrwOWOhbpISSfLjF+PPTZgsaDngzn
L7zSpc3H6Xqxwzg+wsZorY7REzsuQ3xJCCK/i6eruGRtJ0H/3JOIxsAMxG7TtTcQ
k2HX5b51hZkjxUEqe/8Ez+Sq1CuVZbno0WjEqU0VAgMBAAGjgagwgaUwCQYDVR0T
BAIwADAdBgNVHQ4EFgQUOPdOfpJKpWpV+1yYhGtHWtkWUBcwVwYDVR0jBFAwToAU
f9unBF+gIx/Abs1V8BXGJ1W8gLihIKQeMBwxGjAYBgNVBAMMEWVhc3l0bHMtdW5p
dC10ZXN0ghQlIe5SE5iU3BfaVAM5qMviQpIjTTATBgNVHSUEDDAKBggrBgEFBQcD
AjALBgNVHQ8EBAMCB4AwDQYJKoZIhvcNAQELBQADggEBAC+uwMwrWMxYU64rBdYi
2IprSGivjRZDe76JmggYtDeaDv5X994YUGAhmI88vcC/etN2P0xGfMS/XNQZAdms
ROknqqIIRCEgEEgFREd9OYgQd/y3apMS7PjCNCzKXmY8gIG72v4qa0gsMS3/uC4a
7UD7b/loetKd0zcBedMYWh4X6+Bx15UY+raN4ALTJaV+c+0ck6IjLESev4YdG/85
evo2sHa7/lBvUaQM94FychPIyy0DnQf54wi9aX5UUldK9+WOwdQ0UKIWpHQ4Hla/
N4an35HbZU2JVa7AZfffuTbdZys+shbLdgKfQHp0lVNjmNOi2tr7dccyIpncPn+i
Lkw=
-----END CERTIFICATE-----
