Certificate:
    Data:
        Version: 3 (0x2)
        Serial Number:
            be:59:e4:e5:ad:d3:a3:9c:c7:60:8f:4f:4f:04:a2:bb
        Signature Algorithm: sha256WithRSAEncryption
        Issuer: CN=easytls-unit-test
        Validity
            Not Before: Feb 26 00:19:07 2022 GMT
            Not After : May 31 00:19:07 2024 GMT
        Subject: CN=c02
        Subject Public Key Info:
            Public Key Algorithm: rsaEncryption
                Public-Key: (2048 bit)
                Modulus:
                    00:bc:40:2a:8f:d8:0d:70:4b:b5:7c:27:9d:83:bf:
                    49:23:6e:fe:bc:6d:86:d3:7b:19:e4:a9:bf:31:15:
                    48:36:63:c3:23:93:e4:6e:6c:cd:2d:12:ca:80:45:
                    b0:05:69:bb:b4:e0:58:51:58:cf:ce:8d:9d:91:3e:
                    26:c4:aa:e3:69:99:ba:44:e1:90:d6:53:c8:5f:72:
                    0e:63:0f:6a:d9:8c:55:5e:46:9e:9d:c0:e5:da:db:
                    c3:75:30:54:16:38:d6:68:6a:27:a8:b6:f2:a8:a2:
                    49:df:21:8f:7a:19:eb:85:fb:1c:09:d7:70:37:8e:
                    e9:68:3a:6d:8d:eb:b7:cf:2e:0b:7f:e8:35:0d:3b:
                    40:4e:d4:c6:90:a5:32:25:af:0a:c6:1e:86:ed:c9:
                    b9:81:01:12:07:61:25:eb:ac:d9:f8:99:4b:39:4a:
                    0c:51:b3:f3:ab:a3:ab:98:a5:9d:e0:92:5a:32:d3:
                    a6:f7:40:d0:75:00:f7:c0:5e:8c:28:be:7f:28:d7:
                    9f:ca:d8:57:3f:3e:19:6d:55:ac:da:fd:35:27:50:
                    96:2a:3b:30:72:74:30:41:92:81:ce:77:37:ee:d1:
                    e3:70:65:a7:d1:90:54:f4:de:a6:92:6c:71:cf:d0:
                    8d:a0:27:2b:4e:0d:a8:c2:24:e5:ed:c2:53:fd:e4:
                    e2:69
                Exponent: 65537 (0x10001)
        X509v3 extensions:
            X509v3 Basic Constraints: 
                CA:FALSE
            X509v3 Subject Key Identifier: 
                07:54:37:E2:28:3F:68:DC:94:CE:9E:0C:F3:1B:D3:3B:16:A5:B4:71
            X509v3 Authority Key Identifier: 
                keyid:7F:DB:A7:04:5F:A0:23:1F:C0:6E:CD:55:F0:15:C6:27:55:BC:80:B8
                DirName:/CN=easytls-unit-test
                serial:25:21:EE:52:13:98:94:DC:17:DA:54:03:39:A8:CB:E2:42:92:23:4D
            X509v3 Extended Key Usage: 
                TLS Web Client Authentication
            X509v3 Key Usage: 
                Digital Signature
    Signature Algorithm: sha256WithRSAEncryption
    Signature Value:
        a0:ac:4d:d4:ee:4c:0f:df:f3:72:33:f2:b0:3a:0c:31:9a:ec:
        b6:e3:ae:8a:43:c7:2a:89:42:53:14:30:58:94:35:27:52:fb:
        2c:bf:f5:de:16:67:d8:9b:0c:7f:db:05:d9:c1:a7:1a:6d:fa:
        ea:89:0a:72:26:cc:81:49:3d:21:ec:7b:93:f4:04:4a:e6:97:
        86:c2:67:d7:8d:f5:be:be:70:c6:ba:f4:19:d7:53:55:50:fa:
        45:5d:5c:63:0f:5c:80:97:fc:81:49:a9:a9:d7:e7:11:a0:8e:
        a2:1d:9b:43:99:ab:da:9e:7a:ad:36:4f:5d:8d:a0:33:86:f5:
        66:01:c9:6b:c5:55:54:be:81:3a:51:03:44:61:68:c4:e7:b7:
        e9:51:33:ed:e4:dc:b7:21:7b:75:c5:48:13:c0:04:5a:f7:62:
        1e:0a:9c:f7:2f:c1:9f:73:d3:30:d1:2a:ed:5e:a6:1a:a2:67:
        3b:8a:8e:4a:67:f9:46:46:16:12:85:d7:11:dc:23:ac:52:07:
        52:cc:83:74:4a:73:c6:80:ed:33:29:f6:af:bd:f1:35:00:7b:
        2b:f5:ee:42:48:4c:cb:b8:14:d7:b3:00:6d:15:a3:95:1f:42:
        08:fa:47:70:8f:b7:c2:41:59:1b:20:74:e6:27:ec:e9:0a:f7:
        5b:b9:9b:46
-----BEGIN CERTIFICATE-----
MIIDXjCCAkagAwIBAgIRAL5Z5OWt06Ocx2CPT08EorswDQYJKoZIhvcNAQELBQAw
HDEaMBgGA1UEAwwRZWFzeXRscy11bml0LXRlc3QwHhcNMjIwMjI2MDAxOTA3WhcN
MjQwNTMxMDAxOTA3WjAOMQwwCgYDVQQDDANjMDIwggEiMA0GCSqGSIb3DQEBAQUA
A4IBDwAwggEKAoIBAQC8QCqP2A1wS7V8J52Dv0kjbv68bYbTexnkqb8xFUg2Y8Mj
k+RubM0tEsqARbAFabu04FhRWM/OjZ2RPibEquNpmbpE4ZDWU8hfcg5jD2rZjFVe
Rp6dwOXa28N1MFQWONZoaieotvKooknfIY96GeuF+xwJ13A3juloOm2N67fPLgt/
6DUNO0BO1MaQpTIlrwrGHobtybmBARIHYSXrrNn4mUs5SgxRs/Oro6uYpZ3gkloy
06b3QNB1APfAXowovn8o15/K2Fc/PhltVaza/TUnUJYqOzBydDBBkoHOdzfu0eNw
ZafRkFT03qaSbHHP0I2gJytODajCJOXtwlP95OJpAgMBAAGjgagwgaUwCQYDVR0T
BAIwADAdBgNVHQ4EFgQUB1Q34ig/aNyUzp4M8xvTOxaltHEwVwYDVR0jBFAwToAU
f9unBF+gIx/Abs1V8BXGJ1W8gLihIKQeMBwxGjAYBgNVBAMMEWVhc3l0bHMtdW5p
dC10ZXN0ghQlIe5SE5iU3BfaVAM5qMviQpIjTTATBgNVHSUEDDAKBggrBgEFBQcD
AjALBgNVHQ8EBAMCB4AwDQYJKoZIhvcNAQELBQADggEBAKCsTdTuTA/f83Iz8rA6
DDGa7LbjropDxyqJQlMUMFiUNSdS+yy/9d4WZ9ibDH/bBdnBpxpt+uqJCnImzIFJ
PSHse5P0BErml4bCZ9eN9b6+cMa69BnXU1VQ+kVdXGMPXICX/IFJqanX5xGgjqId
m0OZq9qeeq02T12NoDOG9WYByWvFVVS+gTpRA0RhaMTnt+lRM+3k3Lche3XFSBPA
BFr3Yh4KnPcvwZ9z0zDRKu1ephqiZzuKjkpn+UZGFhKF1xHcI6xSB1LMg3RKc8aA
7TMp9q+98TUAeyv17kJITMu4FNezAG0Vo5UfQgj6R3CPt8JBWRsgdOYn7OkK91u5
m0Y=
-----END CERTIFICATE-----
