Certificate:
    Data:
        Version: 3 (0x2)
        Serial Number:
            d3:93:70:00:40:0f:66:67:9d:46:d9:7c:d2:3d:09:74
        Signature Algorithm: sha256WithRSAEncryption
        Issuer: CN=easytls-unit-test
        Validity
            Not Before: Feb 26 00:19:05 2022 GMT
            Not After : May 31 00:19:05 2024 GMT
        Subject: CN=s-crypt
        Subject Public Key Info:
            Public Key Algorithm: rsaEncryption
                Public-Key: (2048 bit)
                Modulus:
                    00:a6:75:8a:95:4c:3f:8b:ba:7c:48:a4:11:9a:e3:
                    36:50:a7:5a:43:bb:a4:fe:fa:5f:4e:3a:5c:c6:f0:
                    23:a1:cb:f3:d5:35:cd:f3:70:e8:d5:c9:7b:98:3d:
                    06:20:a6:2e:61:6c:e5:35:86:56:c8:d2:65:61:0a:
                    6f:3c:75:cf:10:70:71:2b:9d:a0:06:02:6b:43:de:
                    dc:19:04:75:c6:88:82:10:49:e9:a1:b8:df:af:be:
                    7b:a2:e1:40:72:63:35:6c:b8:42:1f:33:77:50:08:
                    10:dd:e7:ef:37:af:ab:62:80:e8:61:9b:35:14:0a:
                    3e:8c:57:bb:10:ee:cb:fe:9c:b7:c2:9f:ef:9b:9e:
                    93:ef:f7:eb:ff:b9:0a:a7:56:49:c6:3b:cf:17:e8:
                    64:f4:4b:21:b2:ef:33:ea:f9:99:a7:24:b7:3c:47:
                    84:3c:7e:13:c3:72:52:c0:a2:f0:66:7d:d7:2f:f1:
                    42:ef:31:6e:5f:79:0c:f8:f4:78:36:39:0d:88:2e:
                    d6:f3:25:95:7f:3b:3b:2c:f7:37:0b:8f:e2:c6:e5:
                    30:ea:05:70:da:92:34:91:52:dd:03:76:08:01:e8:
                    50:88:5d:ba:4e:7c:6f:02:a3:07:21:b7:4e:4a:90:
                    27:6e:67:28:cb:0c:d7:18:9a:71:fc:40:d1:0a:41:
                    d7:8b
                Exponent: 65537 (0x10001)
        X509v3 extensions:
            X509v3 Basic Constraints: 
                CA:FALSE
            X509v3 Subject Key Identifier: 
                05:AD:2D:A0:F3:B9:39:AB:A7:D9:0E:3F:52:E7:75:48:38:EA:A6:2B
            X509v3 Authority Key Identifier: 
                keyid:7F:DB:A7:04:5F:A0:23:1F:C0:6E:CD:55:F0:15:C6:27:55:BC:80:B8
                DirName:/CN=easytls-unit-test
                serial:25:21:EE:52:13:98:94:DC:17:DA:54:03:39:A8:CB:E2:42:92:23:4D
            X509v3 Extended Key Usage: 
                TLS Web Server Authentication
            X509v3 Key Usage: 
                Digital Signature, Key Encipherment
            X509v3 Subject Alternative Name: 
                DNS:s-crypt
    Signature Algorithm: sha256WithRSAEncryption
    Signature Value:
        4c:bc:57:e3:df:9e:05:da:48:a1:3a:f8:f0:4e:0e:0a:01:5c:
        89:72:6c:3f:7a:7e:6f:9a:fe:97:79:ea:17:44:f6:20:d7:f6:
        ac:c7:41:4b:cf:cd:fa:5a:14:b4:43:9e:ee:27:4e:80:d0:a7:
        7c:9e:6a:4e:da:07:e6:a2:20:38:db:62:02:66:15:f6:f8:91:
        eb:0e:05:59:e5:7b:8b:2e:23:5e:84:65:18:78:07:18:7a:90:
        69:fe:ba:2d:45:ea:6f:d7:a2:3c:77:5d:49:76:3e:68:44:5c:
        4c:b5:65:49:a3:bb:b6:ee:e8:55:85:0f:01:c7:a7:47:95:0e:
        46:b8:75:18:e2:d5:9b:fc:42:f9:5c:42:5d:c1:fe:a6:f0:64:
        e0:38:5b:6a:01:aa:96:9f:4e:76:fb:8c:d4:d2:ac:4b:fb:15:
        7e:62:e7:a2:45:c3:1a:6e:7b:55:cc:7e:c8:8b:af:6a:28:f4:
        83:17:7a:6e:9a:26:08:b7:ac:83:d3:44:8a:e5:e4:cf:d6:4a:
        3c:5c:8e:c2:8f:d2:02:cb:1d:c5:58:ff:43:c0:eb:7e:47:c1:
        df:7a:45:29:84:dd:92:7b:79:9d:a1:c1:73:d7:d1:08:22:4f:
        06:fc:0e:07:76:2e:6e:77:00:26:50:1b:30:f4:ca:36:a3:40:
        c9:b7:71:f0
-----BEGIN CERTIFICATE-----
MIIDdjCCAl6gAwIBAgIRANOTcABAD2ZnnUbZfNI9CXQwDQYJKoZIhvcNAQELBQAw
HDEaMBgGA1UEAwwRZWFzeXRscy11bml0LXRlc3QwHhcNMjIwMjI2MDAxOTA1WhcN
MjQwNTMxMDAxOTA1WjASMRAwDgYDVQQDDAdzLWNyeXB0MIIBIjANBgkqhkiG9w0B
AQEFAAOCAQ8AMIIBCgKCAQEApnWKlUw/i7p8SKQRmuM2UKdaQ7uk/vpfTjpcxvAj
ocvz1TXN83Do1cl7mD0GIKYuYWzlNYZWyNJlYQpvPHXPEHBxK52gBgJrQ97cGQR1
xoiCEEnpobjfr757ouFAcmM1bLhCHzN3UAgQ3efvN6+rYoDoYZs1FAo+jFe7EO7L
/py3wp/vm56T7/fr/7kKp1ZJxjvPF+hk9Eshsu8z6vmZpyS3PEeEPH4Tw3JSwKLw
Zn3XL/FC7zFuX3kM+PR4NjkNiC7W8yWVfzs7LPc3C4/ixuUw6gVw2pI0kVLdA3YI
AehQiF26TnxvAqMHIbdOSpAnbmcoywzXGJpx/EDRCkHXiwIDAQABo4G8MIG5MAkG
A1UdEwQCMAAwHQYDVR0OBBYEFAWtLaDzuTmrp9kOP1LndUg46qYrMFcGA1UdIwRQ
ME6AFH/bpwRfoCMfwG7NVfAVxidVvIC4oSCkHjAcMRowGAYDVQQDDBFlYXN5dGxz
LXVuaXQtdGVzdIIUJSHuUhOYlNwX2lQDOajL4kKSI00wEwYDVR0lBAwwCgYIKwYB
BQUHAwEwCwYDVR0PBAQDAgWgMBIGA1UdEQQLMAmCB3MtY3J5cHQwDQYJKoZIhvcN
AQELBQADggEBAEy8V+PfngXaSKE6+PBODgoBXIlybD96fm+a/pd56hdE9iDX9qzH
QUvPzfpaFLRDnu4nToDQp3yeak7aB+aiIDjbYgJmFfb4kesOBVnle4suI16EZRh4
Bxh6kGn+ui1F6m/Xojx3XUl2PmhEXEy1ZUmju7bu6FWFDwHHp0eVDka4dRji1Zv8
QvlcQl3B/qbwZOA4W2oBqpafTnb7jNTSrEv7FX5i56JFwxpue1XMfsiLr2oo9IMX
em6aJgi3rIPTRIrl5M/WSjxcjsKP0gLLHcVY/0PA635Hwd96RSmE3ZJ7eZ2hwXPX
0QgiTwb8Dgd2Lm53ACZQGzD0yjajQMm3cfA=
-----END CERTIFICATE-----
