Certificate:
    Data:
        Version: 3 (0x2)
        Serial Number:
            ed:dd:e2:12:4d:76:6e:30:b2:78:10:e4:c4:97:ac:57
        Signature Algorithm: sha256WithRSAEncryption
        Issuer: CN=easytls-unit-test
        Validity
            Not Before: Feb 26 00:19:04 2022 GMT
            Not After : May 31 00:19:04 2024 GMT
        Subject: CN=s-auth
        Subject Public Key Info:
            Public Key Algorithm: rsaEncryption
                Public-Key: (2048 bit)
                Modulus:
                    00:f1:21:57:ec:96:b5:f5:9d:3b:e2:c2:25:d5:aa:
                    86:54:ba:b2:5a:54:67:dc:49:17:bf:ee:c8:65:84:
                    b0:93:b7:e6:d5:46:f2:0c:fa:31:42:9d:df:6c:ee:
                    2c:57:df:07:e6:52:7d:9f:bb:4f:cb:9e:5e:c5:33:
                    73:89:ae:f8:2b:8b:94:a4:3a:58:35:52:e3:f1:22:
                    9e:27:a7:54:8f:85:f2:5a:61:0c:b8:3d:b1:e5:5f:
                    c5:85:f8:3a:1d:58:06:c2:3c:9f:d5:cc:c5:b3:48:
                    e5:d3:d5:13:0c:e9:91:50:af:73:0c:d2:d2:6c:d5:
                    e2:6e:b8:7b:03:e4:6e:27:ab:3d:4f:c9:86:e1:56:
                    db:e5:df:9a:31:ed:b3:b7:4e:10:62:40:de:8e:5b:
                    92:fa:05:cf:82:1e:79:7f:46:b7:e5:53:0b:cd:06:
                    51:3c:0d:b7:55:57:a6:a1:a9:22:95:0c:af:e0:f7:
                    91:73:5a:ff:d3:4a:96:c2:33:e6:13:5c:0b:5f:4f:
                    6c:75:66:12:71:ff:0d:52:ed:8a:ae:3d:30:04:17:
                    4a:66:d2:e5:dd:e4:33:42:ee:a8:7b:74:a1:1f:7e:
                    5c:32:90:13:c4:01:e9:81:5e:c3:88:82:84:b6:47:
                    5f:02:04:4d:6d:3a:8d:14:fe:c7:81:b3:0f:7c:eb:
                    b6:cb
                Exponent: 65537 (0x10001)
        X509v3 extensions:
            X509v3 Basic Constraints: 
                CA:FALSE
            X509v3 Subject Key Identifier: 
                F9:E3:67:D2:D0:EE:13:72:F1:04:B0:4C:FF:39:6E:C7:17:CA:E5:FF
            X509v3 Authority Key Identifier: 
                keyid:7F:DB:A7:04:5F:A0:23:1F:C0:6E:CD:55:F0:15:C6:27:55:BC:80:B8
                DirName:/CN=easytls-unit-test
                serial:25:21:EE:52:13:98:94:DC:17:DA:54:03:39:A8:CB:E2:42:92:23:4D
            X509v3 Extended Key Usage: 
                TLS Web Server Authentication
            X509v3 Key Usage: 
                Digital Signature, Key Encipherment
            X509v3 Subject Alternative Name: 
                DNS:s-auth
    Signature Algorithm: sha256WithRSAEncryption
    Signature Value:
        80:6c:c6:24:92:23:8f:54:6e:c3:1b:ab:89:ef:69:8c:44:48:
        93:b4:0a:76:52:5e:5b:a9:47:5f:e0:3d:b0:ea:9a:9a:74:49:
        ad:cc:fa:5a:f8:55:b7:f7:82:0e:9b:5e:f0:ee:d5:f0:f1:ff:
        38:dd:a0:b0:3b:14:2f:b2:6b:87:27:7c:88:79:cb:1b:42:6f:
        c7:07:1e:9c:48:2a:8d:d4:23:f8:2f:64:d4:ca:65:5f:07:ad:
        78:a0:17:10:91:d3:68:1c:e2:f9:12:44:f2:8e:b7:f6:ca:04:
        63:bb:d6:d6:07:3c:25:db:89:21:6c:20:62:22:a9:af:58:2a:
        49:a0:21:ad:9b:e3:a7:84:ed:d0:03:3e:b0:dd:88:0a:b8:2a:
        b5:23:86:76:78:ac:bc:b6:5b:3c:c6:1d:66:45:2e:b2:9c:f5:
        ef:6a:ee:da:f0:7d:68:da:2c:85:79:2d:5f:89:cd:b7:36:6d:
        b7:1c:be:dc:85:b9:81:de:fd:17:20:77:ca:80:4c:eb:d5:7a:
        5d:b2:38:77:54:a2:68:0d:19:51:82:65:ad:82:84:ed:5b:8a:
        a9:6a:9e:be:2a:4a:66:45:28:b9:e1:92:ee:6c:60:e0:48:f2:
        11:b4:24:9d:e0:bc:be:d7:e9:00:f3:72:41:07:b4:81:a7:e3:
        f0:fd:ad:8b
-----BEGIN CERTIFICATE-----
MIIDdDCCAlygAwIBAgIRAO3d4hJNdm4wsngQ5MSXrFcwDQYJKoZIhvcNAQELBQAw
HDEaMBgGA1UEAwwRZWFzeXRscy11bml0LXRlc3QwHhcNMjIwMjI2MDAxOTA0WhcN
MjQwNTMxMDAxOTA0WjARMQ8wDQYDVQQDDAZzLWF1dGgwggEiMA0GCSqGSIb3DQEB
AQUAA4IBDwAwggEKAoIBAQDxIVfslrX1nTviwiXVqoZUurJaVGfcSRe/7shlhLCT
t+bVRvIM+jFCnd9s7ixX3wfmUn2fu0/Lnl7FM3OJrvgri5SkOlg1UuPxIp4np1SP
hfJaYQy4PbHlX8WF+DodWAbCPJ/VzMWzSOXT1RMM6ZFQr3MM0tJs1eJuuHsD5G4n
qz1PyYbhVtvl35ox7bO3ThBiQN6OW5L6Bc+CHnl/RrflUwvNBlE8DbdVV6ahqSKV
DK/g95FzWv/TSpbCM+YTXAtfT2x1ZhJx/w1S7YquPTAEF0pm0uXd5DNC7qh7dKEf
flwykBPEAemBXsOIgoS2R18CBE1tOo0U/seBsw9867bLAgMBAAGjgbswgbgwCQYD
VR0TBAIwADAdBgNVHQ4EFgQU+eNn0tDuE3LxBLBM/zluxxfK5f8wVwYDVR0jBFAw
ToAUf9unBF+gIx/Abs1V8BXGJ1W8gLihIKQeMBwxGjAYBgNVBAMMEWVhc3l0bHMt
dW5pdC10ZXN0ghQlIe5SE5iU3BfaVAM5qMviQpIjTTATBgNVHSUEDDAKBggrBgEF
BQcDATALBgNVHQ8EBAMCBaAwEQYDVR0RBAowCIIGcy1hdXRoMA0GCSqGSIb3DQEB
CwUAA4IBAQCAbMYkkiOPVG7DG6uJ72mMREiTtAp2Ul5bqUdf4D2w6pqadEmtzPpa
+FW394IOm17w7tXw8f843aCwOxQvsmuHJ3yIecsbQm/HBx6cSCqN1CP4L2TUymVf
B614oBcQkdNoHOL5EkTyjrf2ygRju9bWBzwl24khbCBiIqmvWCpJoCGtm+OnhO3Q
Az6w3YgKuCq1I4Z2eKy8tls8xh1mRS6ynPXvau7a8H1o2iyFeS1fic23Nm23HL7c
hbmB3v0XIHfKgEzr1Xpdsjh3VKJoDRlRgmWtgoTtW4qpap6+KkpmRSi54ZLubGDg
SPIRtCSd4Ly+1+kA83JBB7SBp+Pw/a2L
-----END CERTIFICATE-----
