Certificate:
    Data:
        Version: 3 (0x2)
        Serial Number:
            da:c3:9e:b3:bb:1e:89:0b:7a:cd:c2:79:f5:13:1c:d1
        Signature Algorithm: sha256WithRSAEncryption
        Issuer: CN=easytls-unit-test
        Validity
            Not Before: Feb 26 00:08:13 2022 GMT
            Not After : May 31 00:08:13 2024 GMT
        Subject: CN=c05
        Subject Public Key Info:
            Public Key Algorithm: rsaEncryption
                Public-Key: (2048 bit)
                Modulus:
                    00:cd:5f:21:8e:f2:49:dd:c4:ca:3a:3e:49:c5:99:
                    2b:d1:8b:c4:7e:2e:81:f4:1e:99:8d:74:99:09:d7:
                    c7:bd:33:aa:98:68:8d:36:38:48:97:ed:29:c9:db:
                    02:bc:84:44:ea:e2:01:99:9b:20:25:cc:70:29:70:
                    aa:4f:e2:e3:31:70:65:7a:c8:f5:22:05:c5:a3:9d:
                    96:4e:b0:4e:ec:89:30:70:0f:d9:24:0b:e0:df:e9:
                    56:14:0b:47:d3:57:d6:a6:4b:c4:7c:1a:5e:12:db:
                    4a:1c:85:ca:5c:d5:df:ec:c5:0e:58:57:38:33:71:
                    c5:2a:b6:bd:d3:d2:12:59:a1:d1:5f:8c:fe:b0:ed:
                    6d:a4:13:91:5a:72:db:e6:a8:32:63:cd:70:d0:10:
                    7f:4c:f0:93:c1:46:12:79:47:1d:45:8c:c1:62:e3:
                    d9:17:70:37:e6:f3:fe:2e:07:8f:af:8d:d8:33:58:
                    9f:5c:b6:77:3d:e0:db:47:48:81:c3:63:c6:25:57:
                    b6:09:98:6f:c7:e9:67:23:9a:45:f5:b9:f8:dd:53:
                    0c:db:2b:e0:59:1f:52:1d:2a:53:5f:5d:a2:a4:93:
                    b3:29:98:6f:aa:b9:23:36:cd:e7:96:fc:21:9a:ca:
                    76:1f:9b:4d:67:a5:40:93:13:30:12:4a:2e:28:41:
                    9f:3d
                Exponent: 65537 (0x10001)
        X509v3 extensions:
            X509v3 Basic Constraints: 
                CA:FALSE
            X509v3 Subject Key Identifier: 
                F7:BE:26:99:0C:4D:E9:A8:B2:30:BB:57:E1:74:E0:15:5F:EC:C1:82
            X509v3 Authority Key Identifier: 
                keyid:0E:E8:57:E7:5B:DF:A7:1A:79:64:53:89:BA:45:32:9D:B2:0C:6D:F2
                DirName:/CN=easytls-unit-test
                serial:49:7D:81:43:F9:79:34:B1:63:E8:C1:3D:08:93:3C:BE:36:CB:4D:7F
            X509v3 Extended Key Usage: 
                TLS Web Client Authentication
            X509v3 Key Usage: 
                Digital Signature
    Signature Algorithm: sha256WithRSAEncryption
    Signature Value:
        37:62:e5:af:74:1c:87:e7:ca:cc:f0:44:ce:95:aa:79:4d:b2:
        c3:0e:29:4b:43:86:cf:87:4a:05:c8:cb:48:56:6a:23:44:c4:
        05:d0:da:c5:15:58:48:a8:e5:65:00:b7:20:6d:db:dc:76:06:
        a8:e6:20:90:63:0d:ac:a6:6d:c5:f6:65:fc:03:f7:8e:f5:8b:
        d7:20:69:13:3a:50:cf:c5:5f:92:e9:29:fd:fe:66:40:e9:62:
        ff:a0:26:c2:9a:74:f9:29:f9:51:b9:59:d5:64:12:24:8a:ae:
        f3:56:e7:b3:b3:42:b0:a2:c1:6c:e0:01:a1:d4:59:b7:77:d5:
        52:92:0f:e4:5e:3d:1b:71:9f:d4:c7:17:b9:3c:89:10:1d:35:
        a6:6d:67:8e:5b:5b:19:ff:54:d1:04:9c:66:6a:e3:40:f2:4e:
        6b:ec:c7:7e:56:ae:5a:e4:1a:ac:26:2a:59:50:aa:47:d3:71:
        d4:94:cd:5d:5b:f7:e4:2f:2b:ad:43:50:e0:75:00:3d:98:57:
        91:f1:0b:f6:57:44:0f:4c:6a:7c:46:f8:14:6c:61:28:2e:7e:
        db:e5:55:ae:88:01:ed:37:3e:6d:4a:37:82:08:95:05:32:48:
        ab:ed:6b:a2:a5:39:ac:57:ab:ab:19:a3:98:93:26:5a:1d:92:
        78:32:87:13
-----BEGIN CERTIFICATE-----
MIIDXjCCAkagAwIBAgIRANrDnrO7HokLes3CefUTHNEwDQYJKoZIhvcNAQELBQAw
HDEaMBgGA1UEAwwRZWFzeXRscy11bml0LXRlc3QwHhcNMjIwMjI2MDAwODEzWhcN
MjQwNTMxMDAwODEzWjAOMQwwCgYDVQQDDANjMDUwggEiMA0GCSqGSIb3DQEBAQUA
A4IBDwAwggEKAoIBAQDNXyGO8kndxMo6PknFmSvRi8R+LoH0HpmNdJkJ18e9M6qY
aI02OEiX7SnJ2wK8hETq4gGZmyAlzHApcKpP4uMxcGV6yPUiBcWjnZZOsE7siTBw
D9kkC+Df6VYUC0fTV9amS8R8Gl4S20ochcpc1d/sxQ5YVzgzccUqtr3T0hJZodFf
jP6w7W2kE5FactvmqDJjzXDQEH9M8JPBRhJ5Rx1FjMFi49kXcDfm8/4uB4+vjdgz
WJ9ctnc94NtHSIHDY8YlV7YJmG/H6WcjmkX1ufjdUwzbK+BZH1IdKlNfXaKkk7Mp
mG+quSM2zeeW/CGaynYfm01npUCTEzASSi4oQZ89AgMBAAGjgagwgaUwCQYDVR0T
BAIwADAdBgNVHQ4EFgQU974mmQxN6aiyMLtX4XTgFV/swYIwVwYDVR0jBFAwToAU
DuhX51vfpxp5ZFOJukUynbIMbfKhIKQeMBwxGjAYBgNVBAMMEWVhc3l0bHMtdW5p
dC10ZXN0ghRJfYFD+Xk0sWPowT0Ikzy+NstNfzATBgNVHSUEDDAKBggrBgEFBQcD
AjALBgNVHQ8EBAMCB4AwDQYJKoZIhvcNAQELBQADggEBADdi5a90HIfnyszwRM6V
qnlNssMOKUtDhs+HSgXIy0hWaiNExAXQ2sUVWEio5WUAtyBt29x2BqjmIJBjDaym
bcX2ZfwD9471i9cgaRM6UM/FX5LpKf3+ZkDpYv+gJsKadPkp+VG5WdVkEiSKrvNW
57OzQrCiwWzgAaHUWbd31VKSD+RePRtxn9THF7k8iRAdNaZtZ45bWxn/VNEEnGZq
40DyTmvsx35WrlrkGqwmKllQqkfTcdSUzV1b9+QvK61DUOB1AD2YV5HxC/ZXRA9M
anxG+BRsYSguftvlVa6IAe03Pm1KN4IIlQUySKvta6KlOaxXq6sZo5iTJlodkngy
hxM=
-----END CERTIFICATE-----
