Certificate:
    Data:
        Version: 3 (0x2)
        Serial Number:
            bf:0e:3d:13:5e:74:7b:65:c6:c8:3c:84:2d:34:73:f0
        Signature Algorithm: sha256WithRSAEncryption
        Issuer: CN=easytls-unit-test
        Validity
            Not Before: Feb 26 00:08:14 2022 GMT
            Not After : May 31 00:08:14 2024 GMT
        Subject: CN=c06
        Subject Public Key Info:
            Public Key Algorithm: rsaEncryption
                Public-Key: (2048 bit)
                Modulus:
                    00:b4:47:4b:8c:13:5b:2b:69:67:90:23:8a:62:23:
                    24:b7:57:cb:dd:7e:a2:d0:98:14:21:67:ca:cd:ec:
                    9b:fa:cf:28:55:b8:08:d5:93:04:02:f0:ce:15:e2:
                    2a:08:be:13:e8:a7:5b:a7:b2:0e:de:e1:b9:04:31:
                    5d:c4:48:cc:01:18:63:f4:6f:8b:18:63:66:e4:95:
                    90:61:0f:8c:31:0a:e5:2f:a9:f4:d4:17:dd:97:b0:
                    fc:17:07:4b:cf:b6:96:ef:ff:58:c3:c0:46:17:21:
                    e1:cd:ab:5a:a6:7c:3a:69:2a:a2:16:db:e9:94:1e:
                    80:57:8c:e2:a4:6a:b2:9a:03:2d:c4:cc:12:eb:fc:
                    dc:88:35:fe:1f:99:56:64:b3:d0:b2:25:a5:53:5e:
                    46:08:75:66:f8:84:fc:32:f8:b4:18:dc:6a:43:31:
                    69:27:69:bb:ec:7c:b3:e8:57:fc:d5:82:84:d5:1e:
                    b3:d7:db:b9:4d:f5:9c:9d:52:f7:92:e5:41:f8:77:
                    60:7c:9e:ca:13:13:f4:8b:4c:25:b8:6e:32:38:61:
                    c7:ab:d5:2b:c0:d6:c4:8d:6c:4d:11:d1:80:a2:36:
                    20:0c:a4:b1:d2:1c:67:d7:8f:5f:34:48:15:86:01:
                    72:fb:7d:cf:e7:0d:25:10:ec:a2:44:02:dc:3b:65:
                    9f:5f
                Exponent: 65537 (0x10001)
        X509v3 extensions:
            X509v3 Basic Constraints: 
                CA:FALSE
            X509v3 Subject Key Identifier: 
                67:3B:5E:C3:B3:9A:A1:F3:8F:5C:3E:E5:D6:9A:C1:E8:FC:17:16:36
            X509v3 Authority Key Identifier: 
                keyid:0E:E8:57:E7:5B:DF:A7:1A:79:64:53:89:BA:45:32:9D:B2:0C:6D:F2
                DirName:/CN=easytls-unit-test
                serial:49:7D:81:43:F9:79:34:B1:63:E8:C1:3D:08:93:3C:BE:36:CB:4D:7F
            X509v3 Extended Key Usage: 
                TLS Web Client Authentication
            X509v3 Key Usage: 
                Digital Signature
    Signature Algorithm: sha256WithRSAEncryption
    Signature Value:
        07:9b:f4:dd:8a:76:b0:77:cd:f3:24:89:6f:1c:95:e1:04:40:
        69:b8:fb:1e:c3:f2:24:d6:1f:2b:af:de:1b:46:55:74:65:34:
        f8:0a:22:81:b8:05:3e:df:4f:4c:47:cd:53:ce:66:54:08:4f:
        23:82:da:9e:50:2b:d2:56:e0:55:99:ce:c3:dd:2f:bd:06:ba:
        ab:b2:0e:ed:b0:a7:29:8f:0f:fb:f1:46:ef:49:7f:d0:c8:25:
        d8:09:df:9f:d4:c4:b5:d5:53:37:c0:3a:05:7f:83:77:73:c0:
        a4:e3:ec:5d:16:cb:69:11:f5:79:e2:b1:6e:61:48:d1:8e:e3:
        12:8d:15:05:2b:44:5b:af:5e:d4:ac:92:90:c6:94:1f:bf:71:
        b0:50:14:cc:5c:41:95:86:36:b1:31:ee:af:63:17:41:09:a5:
        a8:2e:94:df:ae:e5:e0:9e:55:9a:23:4a:eb:bf:71:7b:e6:6f:
        1d:8c:28:a2:fc:41:33:7f:0d:5e:74:39:1e:23:ee:bc:5d:af:
        dd:0c:37:9a:7d:43:32:dd:ab:cb:bf:a7:34:5a:a8:fb:e2:24:
        2d:ef:a2:b6:3d:d7:a2:cb:15:b7:71:77:4e:f2:f6:6c:da:4c:
        eb:d8:71:b5:9a:d0:1e:2b:c0:d5:77:e1:4c:78:1d:7e:9d:07:
        dd:e6:17:9b
-----BEGIN CERTIFICATE-----
MIIDXjCCAkagAwIBAgIRAL8OPRNedHtlxsg8hC00c/AwDQYJKoZIhvcNAQELBQAw
HDEaMBgGA1UEAwwRZWFzeXRscy11bml0LXRlc3QwHhcNMjIwMjI2MDAwODE0WhcN
MjQwNTMxMDAwODE0WjAOMQwwCgYDVQQDDANjMDYwggEiMA0GCSqGSIb3DQEBAQUA
A4IBDwAwggEKAoIBAQC0R0uME1sraWeQI4piIyS3V8vdfqLQmBQhZ8rN7Jv6zyhV
uAjVkwQC8M4V4ioIvhPop1unsg7e4bkEMV3ESMwBGGP0b4sYY2bklZBhD4wxCuUv
qfTUF92XsPwXB0vPtpbv/1jDwEYXIeHNq1qmfDppKqIW2+mUHoBXjOKkarKaAy3E
zBLr/NyINf4fmVZks9CyJaVTXkYIdWb4hPwy+LQY3GpDMWknabvsfLPoV/zVgoTV
HrPX27lN9ZydUveS5UH4d2B8nsoTE/SLTCW4bjI4Ycer1SvA1sSNbE0R0YCiNiAM
pLHSHGfXj180SBWGAXL7fc/nDSUQ7KJEAtw7ZZ9fAgMBAAGjgagwgaUwCQYDVR0T
BAIwADAdBgNVHQ4EFgQUZztew7OaofOPXD7l1prB6PwXFjYwVwYDVR0jBFAwToAU
DuhX51vfpxp5ZFOJukUynbIMbfKhIKQeMBwxGjAYBgNVBAMMEWVhc3l0bHMtdW5p
dC10ZXN0ghRJfYFD+Xk0sWPowT0Ikzy+NstNfzATBgNVHSUEDDAKBggrBgEFBQcD
AjALBgNVHQ8EBAMCB4AwDQYJKoZIhvcNAQELBQADggEBAAeb9N2KdrB3zfMkiW8c
leEEQGm4+x7D8iTWHyuv3htGVXRlNPgKIoG4BT7fT0xHzVPOZlQITyOC2p5QK9JW
4FWZzsPdL70GuquyDu2wpymPD/vxRu9Jf9DIJdgJ35/UxLXVUzfAOgV/g3dzwKTj
7F0Wy2kR9XnisW5hSNGO4xKNFQUrRFuvXtSskpDGlB+/cbBQFMxcQZWGNrEx7q9j
F0EJpagulN+u5eCeVZojSuu/cXvmbx2MKKL8QTN/DV50OR4j7rxdr90MN5p9QzLd
q8u/pzRaqPviJC3vorY916LLFbdxd07y9mzaTOvYcbWa0B4rwNV34Ux4HX6dB93m
F5s=
-----END CERTIFICATE-----
