Certificate:
    Data:
        Version: 3 (0x2)
        Serial Number:
            e5:cb:03:7b:09:bb:5e:a0:d5:53:ee:c3:34:5f:70:4f
        Signature Algorithm: sha256WithRSAEncryption
        Issuer: CN=easytls-unit-test
        Validity
            Not Before: Feb 26 00:08:07 2022 GMT
            Not After : May 31 00:08:07 2024 GMT
        Subject: CN=s01
        Subject Public Key Info:
            Public Key Algorithm: rsaEncryption
                Public-Key: (2048 bit)
                Modulus:
                    00:c5:c2:a2:42:64:f6:c2:c0:c2:29:e2:d7:9f:66:
                    33:bc:30:86:27:e9:41:1a:c5:35:48:57:9b:d6:57:
                    6a:d0:ae:05:73:db:15:55:68:24:b7:9e:0d:0d:08:
                    af:94:36:41:c6:4a:48:d0:aa:fa:8b:50:23:d0:48:
                    cb:7d:f8:6b:b9:9b:47:0b:9b:1b:af:a0:27:eb:62:
                    4f:f1:90:1d:c9:42:2a:73:e6:63:a1:45:a7:19:5c:
                    3b:a0:fe:e9:4c:0f:17:bb:2e:b1:5d:4f:a7:4b:fc:
                    27:6c:b1:19:6c:a5:da:7c:a7:1c:f3:85:b1:21:62:
                    ed:6f:7f:50:93:b8:a5:c8:fa:c8:55:5b:e1:eb:6b:
                    09:cd:19:ce:3f:27:5b:1f:42:29:28:5a:45:ed:30:
                    ed:70:0c:48:a0:78:e4:89:21:bb:33:1b:3f:41:8a:
                    e1:41:e2:fc:44:d6:76:6c:b9:d1:7c:27:4a:3b:f4:
                    bd:0b:c6:0b:14:dd:01:22:f1:a2:36:62:fb:28:6c:
                    42:59:5c:24:48:ca:90:19:25:43:24:91:fa:d9:a0:
                    54:60:a4:bf:78:be:76:27:e4:47:0a:cf:52:6b:63:
                    23:f5:b6:41:5d:37:d0:a4:c1:fe:b2:86:63:7a:6a:
                    e3:e0:8a:4c:52:cb:36:8a:be:48:d1:80:0d:31:99:
                    19:db
                Exponent: 65537 (0x10001)
        X509v3 extensions:
            X509v3 Basic Constraints: 
                CA:FALSE
            X509v3 Subject Key Identifier: 
                82:6A:52:2B:C5:DC:44:17:8D:8D:BA:83:BD:C0:71:3D:F0:EC:9A:A6
            X509v3 Authority Key Identifier: 
                keyid:0E:E8:57:E7:5B:DF:A7:1A:79:64:53:89:BA:45:32:9D:B2:0C:6D:F2
                DirName:/CN=easytls-unit-test
                serial:49:7D:81:43:F9:79:34:B1:63:E8:C1:3D:08:93:3C:BE:36:CB:4D:7F
            X509v3 Extended Key Usage: 
                TLS Web Server Authentication
            X509v3 Key Usage: 
                Digital Signature, Key Encipherment
            X509v3 Subject Alternative Name: 
                DNS:s01
    Signature Algorithm: sha256WithRSAEncryption
    Signature Value:
        67:dc:69:25:26:b2:a2:2d:4c:ac:49:68:1b:b7:14:bc:e3:f2:
        2a:74:ba:fe:82:6d:00:43:f6:48:b2:4a:12:ec:9a:8c:08:b6:
        76:f1:f6:a7:71:c5:a5:72:7a:d6:79:36:09:08:58:0b:d4:5b:
        d1:a1:3a:d7:08:61:8c:d1:68:6a:70:cf:e0:d0:fd:71:a4:26:
        4e:98:af:e8:dc:1f:d2:2a:af:c6:4c:17:47:2b:1b:88:75:67:
        ba:8d:0a:82:42:8f:b6:94:d7:86:a1:27:7d:df:5e:0f:b7:58:
        49:28:01:dd:46:d8:14:32:4d:8a:46:80:ab:2e:ab:cf:fc:58:
        85:a5:06:c8:e0:50:9d:d0:d6:d0:79:22:96:4c:36:5b:18:58:
        f2:9f:07:1b:68:3b:ee:62:85:54:68:54:81:14:ef:ba:48:38:
        d0:11:9d:07:45:1e:fe:8e:a9:07:11:8e:56:6b:a4:54:35:df:
        8b:6b:58:f4:d9:9c:77:f1:52:4b:4d:08:36:5b:31:5e:69:0a:
        2c:91:55:62:38:d2:99:49:c2:da:22:ee:63:ed:7c:69:f2:75:
        f4:f5:7f:b2:0e:0f:db:cb:7f:ba:16:ac:2f:80:1c:87:28:47:
        92:42:3b:44:b8:cd:66:9d:bb:0c:4c:06:5f:9b:8d:40:3c:bc:
        38:51:a2:5b
-----BEGIN CERTIFICATE-----
MIIDbjCCAlagAwIBAgIRAOXLA3sJu16g1VPuwzRfcE8wDQYJKoZIhvcNAQELBQAw
HDEaMBgGA1UEAwwRZWFzeXRscy11bml0LXRlc3QwHhcNMjIwMjI2MDAwODA3WhcN
MjQwNTMxMDAwODA3WjAOMQwwCgYDVQQDDANzMDEwggEiMA0GCSqGSIb3DQEBAQUA
A4IBDwAwggEKAoIBAQDFwqJCZPbCwMIp4tefZjO8MIYn6UEaxTVIV5vWV2rQrgVz
2xVVaCS3ng0NCK+UNkHGSkjQqvqLUCPQSMt9+Gu5m0cLmxuvoCfrYk/xkB3JQipz
5mOhRacZXDug/ulMDxe7LrFdT6dL/CdssRlspdp8pxzzhbEhYu1vf1CTuKXI+shV
W+HrawnNGc4/J1sfQikoWkXtMO1wDEigeOSJIbszGz9BiuFB4vxE1nZsudF8J0o7
9L0LxgsU3QEi8aI2YvsobEJZXCRIypAZJUMkkfrZoFRgpL94vnYn5EcKz1JrYyP1
tkFdN9Ckwf6yhmN6auPgikxSyzaKvkjRgA0xmRnbAgMBAAGjgbgwgbUwCQYDVR0T
BAIwADAdBgNVHQ4EFgQUgmpSK8XcRBeNjbqDvcBxPfDsmqYwVwYDVR0jBFAwToAU
DuhX51vfpxp5ZFOJukUynbIMbfKhIKQeMBwxGjAYBgNVBAMMEWVhc3l0bHMtdW5p
dC10ZXN0ghRJfYFD+Xk0sWPowT0Ikzy+NstNfzATBgNVHSUEDDAKBggrBgEFBQcD
ATALBgNVHQ8EBAMCBaAwDgYDVR0RBAcwBYIDczAxMA0GCSqGSIb3DQEBCwUAA4IB
AQBn3GklJrKiLUysSWgbtxS84/IqdLr+gm0AQ/ZIskoS7JqMCLZ28fanccWlcnrW
eTYJCFgL1FvRoTrXCGGM0WhqcM/g0P1xpCZOmK/o3B/SKq/GTBdHKxuIdWe6jQqC
Qo+2lNeGoSd9314Pt1hJKAHdRtgUMk2KRoCrLqvP/FiFpQbI4FCd0NbQeSKWTDZb
GFjynwcbaDvuYoVUaFSBFO+6SDjQEZ0HRR7+jqkHEY5Wa6RUNd+La1j02Zx38VJL
TQg2WzFeaQoskVViONKZScLaIu5j7Xxp8nX09X+yDg/by3+6FqwvgByHKEeSQjtE
uM1mnbsMTAZfm41APLw4UaJb
-----END CERTIFICATE-----
